(imatplotlib.font_manager
FontManager
p1
(dp2
S'afm_lookup_cache'
p3
(dp4
sS'ttflist'
p5
(lp6
ccopy_reg
_reconstructor
p7
(cmatplotlib.font_manager
FontEntry
p8
c__builtin__
object
p9
NtRp10
(dp11
S'style'
p12
S'normal'
p13
sS'name'
p14
S'cmb10'
p15
sS'weight'
p16
I400
sS'stretch'
p17
g13
sS'variant'
p18
g13
sS'fname'
p19
S'/usr/share/matplotlib/mpl-data/fonts/ttf/cmb10.ttf'
p20
sS'size'
p21
S'scalable'
p22
sbag7
(g8
g9
NtRp23
(dp24
g12
g13
sg14
S'cmex10'
p25
sg16
I400
sg17
g13
sg18
g13
sg19
S'/usr/share/matplotlib/mpl-data/fonts/ttf/cmex10.ttf'
p26
sg21
g22
sbag7
(g8
g9
NtRp27
(dp28
g12
S'italic'
p29
sg14
S'STIXNonUnicode'
p30
sg16
I400
sg17
g13
sg18
g13
sg19
S'/usr/share/matplotlib/mpl-data/fonts/ttf/STIXNonUniIta.ttf'
p31
sg21
g22
sbag7
(g8
g9
NtRp32
(dp33
g12
g13
sg14
S'STIXSizeOneSym'
p34
sg16
I400
sg17
g13
sg18
g13
sg19
S'/usr/share/matplotlib/mpl-data/fonts/ttf/STIXSizOneSymReg.ttf'
p35
sg21
g22
sbag7
(g8
g9
NtRp36
(dp37
g12
g13
sg14
S'STIXSizeThreeSym'
p38
sg16
I400
sg17
g13
sg18
g13
sg19
S'/usr/share/matplotlib/mpl-data/fonts/ttf/STIXSizThreeSymReg.ttf'
p39
sg21
g22
sbag7
(g8
g9
NtRp40
(dp41
g12
g13
sg14
S'STIXSizeTwoSym'
p42
sg16
I700
sg17
g13
sg18
g13
sg19
S'/usr/share/matplotlib/mpl-data/fonts/ttf/STIXSizTwoSymBol.ttf'
p43
sg21
g22
sbag7
(g8
g9
NtRp44
(dp45
g12
g13
sg14
S'cmtt10'
p46
sg16
I400
sg17
g13
sg18
g13
sg19
S'/usr/share/matplotlib/mpl-data/fonts/ttf/cmtt10.ttf'
p47
sg21
g22
sbag7
(g8
g9
NtRp48
(dp49
g12
g13
sg14
S'STIXGeneral'
p50
sg16
I400
sg17
g13
sg18
g13
sg19
S'/usr/share/matplotlib/mpl-data/fonts/ttf/STIXGeneral.ttf'
p51
sg21
g22
sbag7
(g8
g9
NtRp52
(dp53
g12
g13
sg14
S'STIXSizeThreeSym'
p54
sg16
I700
sg17
g13
sg18
g13
sg19
S'/usr/share/matplotlib/mpl-data/fonts/ttf/STIXSizThreeSymBol.ttf'
p55
sg21
g22
sbag7
(g8
g9
NtRp56
(dp57
g12
g13
sg14
S'STIXSizeFiveSym'
p58
sg16
I400
sg17
g13
sg18
g13
sg19
S'/usr/share/matplotlib/mpl-data/fonts/ttf/STIXSizFiveSymReg.ttf'
p59
sg21
g22
sbag7
(g8
g9
NtRp60
(dp61
g12
g13
sg14
S'STIXSizeOneSym'
p62
sg16
I700
sg17
g13
sg18
g13
sg19
S'/usr/share/matplotlib/mpl-data/fonts/ttf/STIXSizOneSymBol.ttf'
p63
sg21
g22
sbag7
(g8
g9
NtRp64
(dp65
g12
g13
sg14
S'STIXGeneral'
p66
sg16
I700
sg17
g13
sg18
g13
sg19
S'/usr/share/matplotlib/mpl-data/fonts/ttf/STIXGeneralBol.ttf'
p67
sg21
g22
sbag7
(g8
g9
NtRp68
(dp69
g12
g13
sg14
S'cmr10'
p70
sg16
I400
sg17
g13
sg18
g13
sg19
S'/usr/share/matplotlib/mpl-data/fonts/ttf/cmr10.ttf'
p71
sg21
g22
sbag7
(g8
g9
NtRp72
(dp73
g12
g13
sg14
S'STIXSizeTwoSym'
p74
sg16
I400
sg17
g13
sg18
g13
sg19
S'/usr/share/matplotlib/mpl-data/fonts/ttf/STIXSizTwoSymReg.ttf'
p75
sg21
g22
sbag7
(g8
g9
NtRp76
(dp77
g12
g13
sg14
S'STIXNonUnicode'
p78
sg16
I400
sg17
g13
sg18
g13
sg19
S'/usr/share/matplotlib/mpl-data/fonts/ttf/STIXNonUni.ttf'
p79
sg21
g22
sbag7
(g8
g9
NtRp80
(dp81
g12
g13
sg14
S'cmsy10'
p82
sg16
I400
sg17
g13
sg18
g13
sg19
S'/usr/share/matplotlib/mpl-data/fonts/ttf/cmsy10.ttf'
p83
sg21
g22
sbag7
(g8
g9
NtRp84
(dp85
g12
g29
sg14
S'STIXNonUnicode'
p86
sg16
I700
sg17
g13
sg18
g13
sg19
S'/usr/share/matplotlib/mpl-data/fonts/ttf/STIXNonUniBolIta.ttf'
p87
sg21
g22
sbag7
(g8
g9
NtRp88
(dp89
g12
g13
sg14
S'cmss10'
p90
sg16
I400
sg17
g13
sg18
g13
sg19
S'/usr/share/matplotlib/mpl-data/fonts/ttf/cmss10.ttf'
p91
sg21
g22
sbag7
(g8
g9
NtRp92
(dp93
g12
g13
sg14
S'STIXSizeFourSym'
p94
sg16
I700
sg17
g13
sg18
g13
sg19
S'/usr/share/matplotlib/mpl-data/fonts/ttf/STIXSizFourSymBol.ttf'
p95
sg21
g22
sbag7
(g8
g9
NtRp96
(dp97
g12
g29
sg14
S'STIXGeneral'
p98
sg16
I400
sg17
g13
sg18
g13
sg19
S'/usr/share/matplotlib/mpl-data/fonts/ttf/STIXGeneralItalic.ttf'
p99
sg21
g22
sbag7
(g8
g9
NtRp100
(dp101
g12
g13
sg14
S'cmmi10'
p102
sg16
I400
sg17
g13
sg18
g13
sg19
S'/usr/share/matplotlib/mpl-data/fonts/ttf/cmmi10.ttf'
p103
sg21
g22
sbag7
(g8
g9
NtRp104
(dp105
g12
g13
sg14
S'STIXNonUnicode'
p106
sg16
I700
sg17
g13
sg18
g13
sg19
S'/usr/share/matplotlib/mpl-data/fonts/ttf/STIXNonUniBol.ttf'
p107
sg21
g22
sbag7
(g8
g9
NtRp108
(dp109
g12
g29
sg14
S'STIXGeneral'
p110
sg16
I700
sg17
g13
sg18
g13
sg19
S'/usr/share/matplotlib/mpl-data/fonts/ttf/STIXGeneralBolIta.ttf'
p111
sg21
g22
sbag7
(g8
g9
NtRp112
(dp113
g12
g13
sg14
S'STIXSizeFourSym'
p114
sg16
I400
sg17
g13
sg18
g13
sg19
S'/usr/share/matplotlib/mpl-data/fonts/ttf/STIXSizFourSymReg.ttf'
p115
sg21
g22
sbag7
(g8
g9
NtRp116
(dp117
g12
g13
sg14
S'KacstTitle'
p118
sg16
I400
sg17
g13
sg18
g13
sg19
S'/usr/share/fonts/truetype/kacst/KacstTitle.ttf'
p119
sg21
g22
sbag7
(g8
g9
NtRp120
(dp121
g12
S'oblique'
p122
sg14
S'Tlwg Typo'
p123
sg16
I400
sg17
g13
sg18
g13
sg19
S'/usr/share/fonts/truetype/tlwg/TlwgTypo-Oblique.ttf'
p124
sg21
g22
sbag7
(g8
g9
NtRp125
(dp126
g12
g13
sg14
S'Mallige'
p127
sg16
I700
sg17
g13
sg18
g13
sg19
S'/usr/share/fonts/truetype/ttf-indic-fonts-core/Malige-b.ttf'
p128
sg21
g22
sbag7
(g8
g9
NtRp129
(dp130
g12
g13
sg14
S'Umpush'
p131
sg16
I400
sg17
g13
sg18
g13
sg19
S'/usr/share/fonts/truetype/tlwg/Umpush.ttf'
p132
sg21
g22
sbag7
(g8
g9
NtRp133
(dp134
g12
g13
sg14
S'Garuda'
p135
sg16
I700
sg17
g13
sg18
g13
sg19
S'/usr/share/fonts/truetype/tlwg/Garuda-Bold.ttf'
p136
sg21
g22
sbag7
(g8
g9
NtRp137
(dp138
g12
g122
sg14
S'Tlwg Typist'
p139
sg16
I700
sg17
g13
sg18
g13
sg19
S'/usr/share/fonts/truetype/tlwg/TlwgTypist-BoldOblique.ttf'
p140
sg21
g22
sbag7
(g8
g9
NtRp141
(dp142
g12
g29
sg14
S'rsfs10'
p143
sg16
I400
sg17
g13
sg18
g13
sg19
S'/usr/share/fonts/truetype/ttf-lyx/rsfs10.ttf'
p144
sg21
g22
sbag7
(g8
g9
NtRp145
(dp146
g12
g122
sg14
S'Loma'
p147
sg16
I400
sg17
g13
sg18
g13
sg19
S'/usr/share/fonts/truetype/tlwg/Loma-Oblique.ttf'
p148
sg21
g22
sbag7
(g8
g9
NtRp149
(dp150
g12
g13
sg14
S'msam10'
p151
sg16
I400
sg17
g13
sg18
g13
sg19
S'/usr/share/fonts/truetype/ttf-lyx/msam10.ttf'
p152
sg21
g22
sbag7
(g8
g9
NtRp153
(dp154
g12
g122
sg14
S'Norasi'
p155
sg16
I400
sg17
g13
sg18
g13
sg19
S'/usr/share/fonts/truetype/tlwg/Norasi-Oblique.ttf'
p156
sg21
g22
sbag7
(g8
g9
NtRp157
(dp158
g12
g13
sg14
S'DejaVu Sans Mono'
p159
sg16
I400
sg17
g13
sg18
g13
sg19
S'/usr/share/fonts/truetype/ttf-dejavu/DejaVuSansMono.ttf'
p160
sg21
g22
sbag7
(g8
g9
NtRp161
(dp162
g12
g13
sg14
S'Meera'
p163
sg16
I400
sg17
g13
sg18
g13
sg19
S'/usr/share/fonts/truetype/ttf-indic-fonts-core/Meera_04.ttf'
p164
sg21
g22
sbag7
(g8
g9
NtRp165
(dp166
g12
g13
sg14
S'TakaoPGothic'
p167
sg16
I400
sg17
g13
sg18
g13
sg19
S'/usr/share/fonts/truetype/fonts-japanese-gothic.ttf'
p168
sg21
g22
sbag7
(g8
g9
NtRp169
(dp170
g12
g13
sg14
S'Liberation Mono'
p171
sg16
I700
sg17
g13
sg18
g13
sg19
S'/usr/share/fonts/truetype/liberation/LiberationMono-Bold.ttf'
p172
sg21
g22
sbag7
(g8
g9
NtRp173
(dp174
g12
g122
sg14
S'Umpush'
p175
sg16
I200
sg17
g13
sg18
g13
sg19
S'/usr/share/fonts/truetype/tlwg/Umpush-LightOblique.ttf'
p176
sg21
g22
sbag7
(g8
g9
NtRp177
(dp178
g12
g13
sg14
S'FreeSerif'
p179
sg16
I700
sg17
g13
sg18
g13
sg19
S'/usr/share/fonts/truetype/freefont/FreeSerifBold.ttf'
p180
sg21
g22
sbag7
(g8
g9
NtRp181
(dp182
g12
g122
sg14
S'FreeMono'
p183
sg16
I700
sg17
g13
sg18
g13
sg19
S'/usr/share/fonts/truetype/freefont/FreeMonoBoldOblique.ttf'
p184
sg21
g22
sbag7
(g8
g9
NtRp185
(dp186
g12
g13
sg14
S'Tlwg Typo'
p187
sg16
I400
sg17
g13
sg18
g13
sg19
S'/usr/share/fonts/truetype/tlwg/TlwgTypo.ttf'
p188
sg21
g22
sbag7
(g8
g9
NtRp189
(dp190
g12
g13
sg14
S'Rachana'
p191
sg16
I400
sg17
g13
sg18
g13
sg19
S'/usr/share/fonts/truetype/ttf-indic-fonts-core/Rachana_04.ttf'
p192
sg21
g22
sbag7
(g8
g9
NtRp193
(dp194
g12
g13
sg14
S'DejaVu Serif'
p195
sg16
I400
sg17
g13
sg18
g13
sg19
S'/usr/share/fonts/truetype/ttf-dejavu/DejaVuSerif.ttf'
p196
sg21
g22
sbag7
(g8
g9
NtRp197
(dp198
g12
g13
sg14
S'Liberation Sans Narrow'
p199
sg16
I700
sg17
S'condensed'
p200
sg18
g13
sg19
S'/usr/share/fonts/truetype/liberation/LiberationSansNarrow-Bold.ttf'
p201
sg21
g22
sbag7
(g8
g9
NtRp202
(dp203
g12
g122
sg14
S'FreeSans'
p204
sg16
I400
sg17
g13
sg18
g13
sg19
S'/usr/share/fonts/truetype/freefont/FreeSansOblique.ttf'
p205
sg21
g22
sbag7
(g8
g9
NtRp206
(dp207
g12
g13
sg14
S'Liberation Sans'
p208
sg16
I700
sg17
g13
sg18
g13
sg19
S'/usr/share/fonts/truetype/liberation/LiberationSans-Bold.ttf'
p209
sg21
g22
sbag7
(g8
g9
NtRp210
(dp211
g12
g13
sg14
S'Lohit Hindi'
p212
sg16
I400
sg17
g13
sg18
g13
sg19
S'/usr/share/fonts/truetype/ttf-indic-fonts-core/lohit_hi.ttf'
p213
sg21
g22
sbag7
(g8
g9
NtRp214
(dp215
g12
g13
sg14
S'Liberation Mono'
p216
sg16
I400
sg17
g13
sg18
g13
sg19
S'/usr/share/fonts/truetype/liberation/LiberationMono-Regular.ttf'
p217
sg21
g22
sbag7
(g8
g9
NtRp218
(dp219
g12
g13
sg14
S'Ubuntu'
p220
sg16
I400
sg17
g13
sg18
g13
sg19
S'/usr/share/fonts/truetype/ubuntu-font-family/Ubuntu-R.ttf'
p221
sg21
g22
sbag7
(g8
g9
NtRp222
(dp223
g12
g13
sg14
S'eufm10'
p224
sg16
I400
sg17
g13
sg18
g13
sg19
S'/usr/share/fonts/truetype/ttf-lyx/eufm10.ttf'
p225
sg21
g22
sbag7
(g8
g9
NtRp226
(dp227
g12
g13
sg14
S'Garuda'
p228
sg16
I400
sg17
g13
sg18
g13
sg19
S'/usr/share/fonts/truetype/tlwg/Garuda.ttf'
p229
sg21
g22
sbag7
(g8
g9
NtRp230
(dp231
g12
g122
sg14
S'TlwgMono'
p232
sg16
I400
sg17
g13
sg18
g13
sg19
S'/usr/share/fonts/truetype/tlwg/TlwgMono-Oblique.ttf'
p233
sg21
g22
sbag7
(g8
g9
NtRp234
(dp235
g12
g13
sg14
S'Tlwg Typist'
p236
sg16
I400
sg17
g13
sg18
g13
sg19
S'/usr/share/fonts/truetype/tlwg/TlwgTypist.ttf'
p237
sg21
g22
sbag7
(g8
g9
NtRp238
(dp239
g12
g13
sg14
S'NanumGothic'
p240
sg16
I400
sg17
g13
sg18
g13
sg19
S'/usr/share/fonts/truetype/nanum/NanumGothic.ttf'
p241
sg21
g22
sbag7
(g8
g9
NtRp242
(dp243
g12
g13
sg14
S'wasy10'
p244
sg16
I400
sg17
g13
sg18
g13
sg19
S'/usr/share/fonts/truetype/ttf-lyx/wasy10.ttf'
p245
sg21
g22
sbag7
(g8
g9
NtRp246
(dp247
g12
g13
sg14
S'mry_KacstQurn'
p248
sg16
I400
sg17
g13
sg18
g13
sg19
S'/usr/share/fonts/truetype/kacst/mry_KacstQurn.ttf'
p249
sg21
g22
sbag7
(g8
g9
NtRp250
(dp251
g12
g13
sg14
S'msbm10'
p252
sg16
I400
sg17
g13
sg18
g13
sg19
S'/usr/share/fonts/truetype/ttf-lyx/msbm10.ttf'
p253
sg21
g22
sbag7
(g8
g9
NtRp254
(dp255
g12
g13
sg14
S'TlwgMono'
p256
sg16
I700
sg17
g13
sg18
g13
sg19
S'/usr/share/fonts/truetype/tlwg/TlwgMono-Bold.ttf'
p257
sg21
g22
sbag7
(g8
g9
NtRp258
(dp259
g12
g29
sg14
S'Liberation Mono'
p260
sg16
I400
sg17
g13
sg18
g13
sg19
S'/usr/share/fonts/truetype/liberation/LiberationMono-Italic.ttf'
p261
sg21
g22
sbag7
(g8
g9
NtRp262
(dp263
g12
g29
sg14
S'Liberation Serif'
p264
sg16
I700
sg17
g13
sg18
g13
sg19
S'/usr/share/fonts/truetype/liberation/LiberationSerif-BoldItalic.ttf'
p265
sg21
g22
sbag7
(g8
g9
NtRp266
(dp267
g12
g13
sg14
S'Liberation Serif'
p268
sg16
I700
sg17
g13
sg18
g13
sg19
S'/usr/share/fonts/truetype/liberation/LiberationSerif-Bold.ttf'
p269
sg21
g22
sbag7
(g8
g9
NtRp270
(dp271
g12
g13
sg14
S'KacstOne'
p272
sg16
I700
sg17
g13
sg18
g13
sg19
S'/usr/share/fonts/truetype/kacst-one/KacstOne-Bold.ttf'
p273
sg21
g22
sbag7
(g8
g9
NtRp274
(dp275
g12
g13
sg14
S'NanumMyeongjo'
p276
sg16
I700
sg17
g13
sg18
g13
sg19
S'/usr/share/fonts/truetype/nanum/NanumMyeongjoBold.ttf'
p277
sg21
g22
sbag7
(g8
g9
NtRp278
(dp279
g12
g13
sg14
S'Waree'
p280
sg16
I700
sg17
g13
sg18
g13
sg19
S'/usr/share/fonts/truetype/tlwg/Waree-Bold.ttf'
p281
sg21
g22
sbag7
(g8
g9
NtRp282
(dp283
g12
g13
sg14
S'Phetsarath OT'
p284
sg16
I400
sg17
g13
sg18
g13
sg19
S'/usr/share/fonts/truetype/lao/Phetsarath_OT.ttf'
p285
sg21
g22
sbag7
(g8
g9
NtRp286
(dp287
g12
g13
sg14
S'ori1Uni'
p288
sg16
I500
sg17
g13
sg18
g13
sg19
S'/usr/share/fonts/truetype/ttf-indic-fonts-core/utkal.ttf'
p289
sg21
g22
sbag7
(g8
g9
NtRp290
(dp291
g12
g13
sg14
S'KacstQurn'
p292
sg16
I400
sg17
g13
sg18
g13
sg19
S'/usr/share/fonts/truetype/kacst/KacstQurn.ttf'
p293
sg21
g22
sbag7
(g8
g9
NtRp294
(dp295
g12
g13
sg14
S'Mukti Narrow'
p296
sg16
I400
sg17
g13
sg18
g13
sg19
S'/usr/share/fonts/truetype/ttf-indic-fonts-core/MuktiNarrow.ttf'
p297
sg21
g22
sbag7
(g8
g9
NtRp298
(dp299
g12
g13
sg14
S'TakaoPGothic'
p300
sg16
I400
sg17
g13
sg18
g13
sg19
S'/usr/share/fonts/truetype/takao-gothic/TakaoPGothic.ttf'
p301
sg21
g22
sbag7
(g8
g9
NtRp302
(dp303
g12
g13
sg14
S'KacstScreen'
p304
sg16
I400
sg17
g13
sg18
g13
sg19
S'/usr/share/fonts/truetype/kacst/KacstScreen.ttf'
p305
sg21
g22
sbag7
(g8
g9
NtRp306
(dp307
g12
g13
sg14
S'Kedage'
p308
sg16
I700
sg17
g13
sg18
g13
sg19
S'/usr/share/fonts/truetype/ttf-indic-fonts-core/Kedage-b.ttf'
p309
sg21
g22
sbag7
(g8
g9
NtRp310
(dp311
g12
g13
sg14
S'DejaVu Serif'
p312
sg16
I700
sg17
g13
sg18
g13
sg19
S'/usr/share/fonts/truetype/ttf-dejavu/DejaVuSerif-Bold.ttf'
p313
sg21
g22
sbag7
(g8
g9
NtRp314
(dp315
g12
g13
sg14
S'Ubuntu Mono'
p316
sg16
I400
sg17
g13
sg18
g13
sg19
S'/usr/share/fonts/truetype/ubuntu-font-family/UbuntuMono-R.ttf'
p317
sg21
g22
sbag7
(g8
g9
NtRp318
(dp319
g12
g13
sg14
S'Norasi'
p320
sg16
I700
sg17
g13
sg18
g13
sg19
S'/usr/share/fonts/truetype/tlwg/Norasi-Bold.ttf'
p321
sg21
g22
sbag7
(g8
g9
NtRp322
(dp323
g12
g29
sg14
S'Norasi'
p324
sg16
I700
sg17
g13
sg18
g13
sg19
S'/usr/share/fonts/truetype/tlwg/Norasi-BoldItalic.ttf'
p325
sg21
g22
sbag7
(g8
g9
NtRp326
(dp327
g12
g13
sg14
S'Umpush'
p328
sg16
I700
sg17
g13
sg18
g13
sg19
S'/usr/share/fonts/truetype/tlwg/Umpush-Bold.ttf'
p329
sg21
g22
sbag7
(g8
g9
NtRp330
(dp331
g12
g122
sg14
S'Kinnari'
p332
sg16
I700
sg17
g13
sg18
g13
sg19
S'/usr/share/fonts/truetype/tlwg/Kinnari-BoldOblique.ttf'
p333
sg21
g22
sbag7
(g8
g9
NtRp334
(dp335
g12
g29
sg14
S'Liberation Sans'
p336
sg16
I700
sg17
g13
sg18
g13
sg19
S'/usr/share/fonts/truetype/liberation/LiberationSans-BoldItalic.ttf'
p337
sg21
g22
sbag7
(g8
g9
NtRp338
(dp339
g12
g13
sg14
S'Mallige'
p340
sg16
I400
sg17
g13
sg18
g13
sg19
S'/usr/share/fonts/truetype/ttf-indic-fonts-core/Malige-n.ttf'
p341
sg21
g22
sbag7
(g8
g9
NtRp342
(dp343
g12
g13
sg14
S'KacstNaskh'
p344
sg16
I400
sg17
g13
sg18
g13
sg19
S'/usr/share/fonts/truetype/kacst/KacstNaskh.ttf'
p345
sg21
g22
sbag7
(g8
g9
NtRp346
(dp347
g12
g13
sg14
S'Rekha'
p348
sg16
I400
sg17
g13
sg18
g13
sg19
S'/usr/share/fonts/truetype/ttf-indic-fonts-core/Rekha.ttf'
p349
sg21
g22
sbag7
(g8
g9
NtRp350
(dp351
g12
g13
sg14
S'Vemana2000'
p352
sg16
I400
sg17
g13
sg18
g13
sg19
S'/usr/share/fonts/truetype/ttf-indic-fonts-core/Vemana.ttf'
p353
sg21
g22
sbag7
(g8
g9
NtRp354
(dp355
g12
g122
sg14
S'Norasi'
p356
sg16
I700
sg17
g13
sg18
g13
sg19
S'/usr/share/fonts/truetype/tlwg/Norasi-BoldOblique.ttf'
p357
sg21
g22
sbag7
(g8
g9
NtRp358
(dp359
g12
g29
sg14
S'Kinnari'
p360
sg16
I700
sg17
g13
sg18
g13
sg19
S'/usr/share/fonts/truetype/tlwg/Kinnari-BoldItalic.ttf'
p361
sg21
g22
sbag7
(g8
g9
NtRp362
(dp363
g12
g13
sg14
S'Sawasdee'
p364
sg16
I400
sg17
g13
sg18
g13
sg19
S'/usr/share/fonts/truetype/tlwg/Sawasdee.ttf'
p365
sg21
g22
sbag7
(g8
g9
NtRp366
(dp367
g12
g13
sg14
S'KacstOne'
p368
sg16
I400
sg17
g13
sg18
g13
sg19
S'/usr/share/fonts/truetype/kacst-one/KacstOne.ttf'
p369
sg21
g22
sbag7
(g8
g9
NtRp370
(dp371
g12
g13
sg14
S'FreeSans'
p372
sg16
I700
sg17
g13
sg18
g13
sg19
S'/usr/share/fonts/truetype/freefont/FreeSansBold.ttf'
p373
sg21
g22
sbag7
(g8
g9
NtRp374
(dp375
g12
g13
sg14
S'Lohit Bengali'
p376
sg16
I400
sg17
g13
sg18
g13
sg19
S'/usr/share/fonts/truetype/ttf-indic-fonts-core/lohit_bn.ttf'
p377
sg21
g22
sbag7
(g8
g9
NtRp378
(dp379
g12
g29
sg14
S'Ubuntu Mono'
p380
sg16
I400
sg17
g13
sg18
g13
sg19
S'/usr/share/fonts/truetype/ubuntu-font-family/UbuntuMono-RI.ttf'
p381
sg21
g22
sbag7
(g8
g9
NtRp382
(dp383
g12
g13
sg14
S'Liberation Serif'
p384
sg16
I400
sg17
g13
sg18
g13
sg19
S'/usr/share/fonts/truetype/liberation/LiberationSerif-Regular.ttf'
p385
sg21
g22
sbag7
(g8
g9
NtRp386
(dp387
g12
g13
sg14
S'Purisa'
p388
sg16
I700
sg17
g13
sg18
g13
sg19
S'/usr/share/fonts/truetype/tlwg/Purisa-Bold.ttf'
p389
sg21
g22
sbag7
(g8
g9
NtRp390
(dp391
g12
g13
sg14
S'FreeMono'
p392
sg16
I700
sg17
g13
sg18
g13
sg19
S'/usr/share/fonts/truetype/freefont/FreeMonoBold.ttf'
p393
sg21
g22
sbag7
(g8
g9
NtRp394
(dp395
g12
g13
sg14
S'DejaVu Sans'
p396
sg16
I700
sg17
g13
sg18
g13
sg19
S'/usr/share/fonts/truetype/ttf-dejavu/DejaVuSans-Bold.ttf'
p397
sg21
g22
sbag7
(g8
g9
NtRp398
(dp399
g12
g13
sg14
S'Tlwg Typist'
p400
sg16
I700
sg17
g13
sg18
g13
sg19
S'/usr/share/fonts/truetype/tlwg/TlwgTypist-Bold.ttf'
p401
sg21
g22
sbag7
(g8
g9
NtRp402
(dp403
g12
g13
sg14
S'Ubuntu'
p404
sg16
I200
sg17
g13
sg18
g13
sg19
S'/usr/share/fonts/truetype/ubuntu-font-family/Ubuntu-L.ttf'
p405
sg21
g22
sbag7
(g8
g9
NtRp406
(dp407
g12
g13
sg14
S'KacstBook'
p408
sg16
I400
sg17
g13
sg18
g13
sg19
S'/usr/share/fonts/truetype/kacst/KacstBook.ttf'
p409
sg21
g22
sbag7
(g8
g9
NtRp410
(dp411
g12
g13
sg14
S'KacstFarsi'
p412
sg16
I400
sg17
g13
sg18
g13
sg19
S'/usr/share/fonts/truetype/kacst/KacstFarsi.ttf'
p413
sg21
g22
sbag7
(g8
g9
NtRp414
(dp415
g12
g13
sg14
S'KacstPoster'
p416
sg16
I400
sg17
g13
sg18
g13
sg19
S'/usr/share/fonts/truetype/kacst/KacstPoster.ttf'
p417
sg21
g22
sbag7
(g8
g9
NtRp418
(dp419
g12
g13
sg14
S'Purisa'
p420
sg16
I400
sg17
g13
sg18
g13
sg19
S'/usr/share/fonts/truetype/tlwg/Purisa.ttf'
p421
sg21
g22
sbag7
(g8
g9
NtRp422
(dp423
g12
g29
sg14
S'Ubuntu'
p424
sg16
I200
sg17
g13
sg18
g13
sg19
S'/usr/share/fonts/truetype/ubuntu-font-family/Ubuntu-LI.ttf'
p425
sg21
g22
sbag7
(g8
g9
NtRp426
(dp427
g12
g13
sg14
S'Lohit Punjabi'
p428
sg16
I400
sg17
g13
sg18
g13
sg19
S'/usr/share/fonts/truetype/ttf-punjabi-fonts/lohit_pa.ttf'
p429
sg21
g22
sbag7
(g8
g9
NtRp430
(dp431
g12
g13
sg14
S'Pothana2000'
p432
sg16
I400
sg17
g13
sg18
g13
sg19
S'/usr/share/fonts/truetype/ttf-indic-fonts-core/Pothana2000.ttf'
p433
sg21
g22
sbag7
(g8
g9
NtRp434
(dp435
g12
g122
sg14
S'Umpush'
p436
sg16
I400
sg17
g13
sg18
g13
sg19
S'/usr/share/fonts/truetype/tlwg/Umpush-Oblique.ttf'
p437
sg21
g22
sbag7
(g8
g9
NtRp438
(dp439
g12
g13
sg14
S'NanumGothic'
p440
sg16
I700
sg17
g13
sg18
g13
sg19
S'/usr/share/fonts/truetype/nanum/NanumGothicBold.ttf'
p441
sg21
g22
sbag7
(g8
g9
NtRp442
(dp443
g12
g29
sg14
S'Liberation Mono'
p444
sg16
I700
sg17
g13
sg18
g13
sg19
S'/usr/share/fonts/truetype/liberation/LiberationMono-BoldItalic.ttf'
p445
sg21
g22
sbag7
(g8
g9
NtRp446
(dp447
g12
g122
sg14
S'Purisa'
p448
sg16
I700
sg17
g13
sg18
g13
sg19
S'/usr/share/fonts/truetype/tlwg/Purisa-BoldOblique.ttf'
p449
sg21
g22
sbag7
(g8
g9
NtRp450
(dp451
g12
g122
sg14
S'Loma'
p452
sg16
I700
sg17
g13
sg18
g13
sg19
S'/usr/share/fonts/truetype/tlwg/Loma-BoldOblique.ttf'
p453
sg21
g22
sbag7
(g8
g9
NtRp454
(dp455
g12
g13
sg14
S'TlwgTypewriter'
p456
sg16
I400
sg17
g13
sg18
g13
sg19
S'/usr/share/fonts/truetype/tlwg/TlwgTypewriter.ttf'
p457
sg21
g22
sbag7
(g8
g9
NtRp458
(dp459
g12
g13
sg14
S'DejaVu Sans'
p460
sg16
I400
sg17
g13
sg18
g13
sg19
S'/usr/share/fonts/truetype/ttf-dejavu/DejaVuSans.ttf'
p461
sg21
g22
sbag7
(g8
g9
NtRp462
(dp463
g12
g13
sg14
S'Ubuntu Mono'
p464
sg16
I700
sg17
g13
sg18
g13
sg19
S'/usr/share/fonts/truetype/ubuntu-font-family/UbuntuMono-B.ttf'
p465
sg21
g22
sbag7
(g8
g9
NtRp466
(dp467
g12
g13
sg14
S'esint10'
p468
sg16
I400
sg17
g13
sg18
g13
sg19
S'/usr/share/fonts/truetype/ttf-lyx/esint10.ttf'
p469
sg21
g22
sbag7
(g8
g9
NtRp470
(dp471
g12
g13
sg14
S'OpenSymbol'
p472
sg16
I400
sg17
g13
sg18
g13
sg19
S'/usr/share/fonts/truetype/openoffice/opens___.ttf'
p473
sg21
g22
sbag7
(g8
g9
NtRp474
(dp475
g12
g13
sg14
S'gargi'
p476
sg16
I400
sg17
g13
sg18
g13
sg19
S'/usr/share/fonts/truetype/ttf-indic-fonts-core/gargi.ttf'
p477
sg21
g22
sbag7
(g8
g9
NtRp478
(dp479
g12
g29
sg14
S'Norasi'
p480
sg16
I400
sg17
g13
sg18
g13
sg19
S'/usr/share/fonts/truetype/tlwg/Norasi-Italic.ttf'
p481
sg21
g22
sbag7
(g8
g9
NtRp482
(dp483
g12
g29
sg14
S'Ubuntu'
p484
sg16
I700
sg17
g13
sg18
g13
sg19
S'/usr/share/fonts/truetype/ubuntu-font-family/Ubuntu-BI.ttf'
p485
sg21
g22
sbag7
(g8
g9
NtRp486
(dp487
g12
g13
sg14
S'Khmer OS System'
p488
sg16
I400
sg17
g13
sg18
g13
sg19
S'/usr/share/fonts/truetype/ttf-khmeros-core/KhmerOSsys.ttf'
p489
sg21
g22
sbag7
(g8
g9
NtRp490
(dp491
g12
g122
sg14
S'Tlwg Typist'
p492
sg16
I400
sg17
g13
sg18
g13
sg19
S'/usr/share/fonts/truetype/tlwg/TlwgTypist-Oblique.ttf'
p493
sg21
g22
sbag7
(g8
g9
NtRp494
(dp495
g12
g13
sg14
S'Norasi'
p496
sg16
I400
sg17
g13
sg18
g13
sg19
S'/usr/share/fonts/truetype/tlwg/Norasi.ttf'
p497
sg21
g22
sbag7
(g8
g9
NtRp498
(dp499
g12
g13
sg14
S'Mukti Narrow'
p500
sg16
I700
sg17
g13
sg18
g13
sg19
S'/usr/share/fonts/truetype/ttf-indic-fonts-core/MuktiNarrowBold.ttf'
p501
sg21
g22
sbag7
(g8
g9
NtRp502
(dp503
g12
g29
sg14
S'Liberation Sans'
p504
sg16
I400
sg17
g13
sg18
g13
sg19
S'/usr/share/fonts/truetype/liberation/LiberationSans-Italic.ttf'
p505
sg21
g22
sbag7
(g8
g9
NtRp506
(dp507
g12
g122
sg14
S'Umpush'
p508
sg16
I700
sg17
g13
sg18
g13
sg19
S'/usr/share/fonts/truetype/tlwg/Umpush-BoldOblique.ttf'
p509
sg21
g22
sbag7
(g8
g9
NtRp510
(dp511
g12
g13
sg14
S'Ubuntu'
p512
sg16
I700
sg17
g13
sg18
g13
sg19
S'/usr/share/fonts/truetype/ubuntu-font-family/Ubuntu-B.ttf'
p513
sg21
g22
sbag7
(g8
g9
NtRp514
(dp515
g12
g122
sg14
S'FreeSans'
p516
sg16
I700
sg17
g13
sg18
g13
sg19
S'/usr/share/fonts/truetype/freefont/FreeSansBoldOblique.ttf'
p517
sg21
g22
sbag7
(g8
g9
NtRp518
(dp519
g12
g13
sg14
S'Tlwg Typo'
p520
sg16
I700
sg17
g13
sg18
g13
sg19
S'/usr/share/fonts/truetype/tlwg/TlwgTypo-Bold.ttf'
p521
sg21
g22
sbag7
(g8
g9
NtRp522
(dp523
g12
g29
sg14
S'Ubuntu'
p524
sg16
I400
sg17
g13
sg18
g13
sg19
S'/usr/share/fonts/truetype/ubuntu-font-family/Ubuntu-RI.ttf'
p525
sg21
g22
sbag7
(g8
g9
NtRp526
(dp527
g12
g122
sg14
S'Waree'
p528
sg16
I400
sg17
g13
sg18
g13
sg19
S'/usr/share/fonts/truetype/tlwg/Waree-Oblique.ttf'
p529
sg21
g22
sbag7
(g8
g9
NtRp530
(dp531
g12
g29
sg14
S'Liberation Serif'
p532
sg16
I400
sg17
g13
sg18
g13
sg19
S'/usr/share/fonts/truetype/liberation/LiberationSerif-Italic.ttf'
p533
sg21
g22
sbag7
(g8
g9
NtRp534
(dp535
g12
g13
sg14
S'TlwgTypewriter'
p536
sg16
I700
sg17
g13
sg18
g13
sg19
S'/usr/share/fonts/truetype/tlwg/TlwgTypewriter-Bold.ttf'
p537
sg21
g22
sbag7
(g8
g9
NtRp538
(dp539
g12
g122
sg14
S'Waree'
p540
sg16
I700
sg17
g13
sg18
g13
sg19
S'/usr/share/fonts/truetype/tlwg/Waree-BoldOblique.ttf'
p541
sg21
g22
sbag7
(g8
g9
NtRp542
(dp543
g12
g13
sg14
S'FreeSans'
p544
sg16
I400
sg17
g13
sg18
g13
sg19
S'/usr/share/fonts/truetype/freefont/FreeSans.ttf'
p545
sg21
g22
sbag7
(g8
g9
NtRp546
(dp547
g12
g122
sg14
S'Kinnari'
p548
sg16
I400
sg17
g13
sg18
g13
sg19
S'/usr/share/fonts/truetype/tlwg/Kinnari-Oblique.ttf'
p549
sg21
g22
sbag7
(g8
g9
NtRp550
(dp551
g12
g13
sg14
S'DejaVu Sans Mono'
p552
sg16
I700
sg17
g13
sg18
g13
sg19
S'/usr/share/fonts/truetype/ttf-dejavu/DejaVuSansMono-Bold.ttf'
p553
sg21
g22
sbag7
(g8
g9
NtRp554
(dp555
g12
g29
sg14
S'FreeSerif'
p556
sg16
I700
sg17
g13
sg18
g13
sg19
S'/usr/share/fonts/truetype/freefont/FreeSerifBoldItalic.ttf'
p557
sg21
g22
sbag7
(g8
g9
NtRp558
(dp559
g12
g13
sg14
S'KacstArt'
p560
sg16
I400
sg17
g13
sg18
g13
sg19
S'/usr/share/fonts/truetype/kacst/KacstArt.ttf'
p561
sg21
g22
sbag7
(g8
g9
NtRp562
(dp563
g12
g13
sg14
S'Waree'
p564
sg16
I400
sg17
g13
sg18
g13
sg19
S'/usr/share/fonts/truetype/tlwg/Waree.ttf'
p565
sg21
g22
sbag7
(g8
g9
NtRp566
(dp567
g12
g29
sg14
S'Liberation Sans Narrow'
p568
sg16
I700
sg17
g200
sg18
g13
sg19
S'/usr/share/fonts/truetype/liberation/LiberationSansNarrow-BoldItalic.ttf'
p569
sg21
g22
sbag7
(g8
g9
NtRp570
(dp571
g12
g13
sg14
S'Umpush'
p572
sg16
I200
sg17
g13
sg18
g13
sg19
S'/usr/share/fonts/truetype/tlwg/Umpush-Light.ttf'
p573
sg21
g22
sbag7
(g8
g9
NtRp574
(dp575
g12
g13
sg14
S'Lohit Tamil'
p576
sg16
I400
sg17
g13
sg18
g13
sg19
S'/usr/share/fonts/truetype/ttf-indic-fonts-core/lohit_ta.ttf'
p577
sg21
g22
sbag7
(g8
g9
NtRp578
(dp579
g12
g13
sg14
S'Liberation Sans'
p580
sg16
I400
sg17
g13
sg18
g13
sg19
S'/usr/share/fonts/truetype/liberation/LiberationSans-Regular.ttf'
p581
sg21
g22
sbag7
(g8
g9
NtRp582
(dp583
g12
g13
sg14
S'Ubuntu Condensed'
p584
sg16
I400
sg17
g200
sg18
g13
sg19
S'/usr/share/fonts/truetype/ubuntu-font-family/Ubuntu-C.ttf'
p585
sg21
g22
sbag7
(g8
g9
NtRp586
(dp587
g12
g13
sg14
S'Kinnari'
p588
sg16
I400
sg17
g13
sg18
g13
sg19
S'/usr/share/fonts/truetype/tlwg/Kinnari.ttf'
p589
sg21
g22
sbag7
(g8
g9
NtRp590
(dp591
g12
g29
sg14
S'Ubuntu Mono'
p592
sg16
I700
sg17
g13
sg18
g13
sg19
S'/usr/share/fonts/truetype/ubuntu-font-family/UbuntuMono-BI.ttf'
p593
sg21
g22
sbag7
(g8
g9
NtRp594
(dp595
g12
g122
sg14
S'TlwgMono'
p596
sg16
I700
sg17
g13
sg18
g13
sg19
S'/usr/share/fonts/truetype/tlwg/TlwgMono-BoldOblique.ttf'
p597
sg21
g22
sbag7
(g8
g9
NtRp598
(dp599
g12
g13
sg14
S'Kedage'
p600
sg16
I400
sg17
g13
sg18
g13
sg19
S'/usr/share/fonts/truetype/ttf-indic-fonts-core/Kedage-n.ttf'
p601
sg21
g22
sbag7
(g8
g9
NtRp602
(dp603
g12
g13
sg14
S'Kinnari'
p604
sg16
I700
sg17
g13
sg18
g13
sg19
S'/usr/share/fonts/truetype/tlwg/Kinnari-Bold.ttf'
p605
sg21
g22
sbag7
(g8
g9
NtRp606
(dp607
g12
g122
sg14
S'FreeMono'
p608
sg16
I400
sg17
g13
sg18
g13
sg19
S'/usr/share/fonts/truetype/freefont/FreeMonoOblique.ttf'
p609
sg21
g22
sbag7
(g8
g9
NtRp610
(dp611
g12
g13
sg14
S'TlwgMono'
p612
sg16
I400
sg17
g13
sg18
g13
sg19
S'/usr/share/fonts/truetype/tlwg/TlwgMono.ttf'
p613
sg21
g22
sbag7
(g8
g9
NtRp614
(dp615
g12
g122
sg14
S'TlwgTypewriter'
p616
sg16
I700
sg17
g13
sg18
g13
sg19
S'/usr/share/fonts/truetype/tlwg/TlwgTypewriter-BoldOblique.ttf'
p617
sg21
g22
sbag7
(g8
g9
NtRp618
(dp619
g12
g13
sg14
S'FreeSerif'
p620
sg16
I400
sg17
g13
sg18
g13
sg19
S'/usr/share/fonts/truetype/freefont/FreeSerif.ttf'
p621
sg21
g22
sbag7
(g8
g9
NtRp622
(dp623
g12
g13
sg14
S'Liberation Sans Narrow'
p624
sg16
I400
sg17
g200
sg18
g13
sg19
S'/usr/share/fonts/truetype/liberation/LiberationSansNarrow-Regular.ttf'
p625
sg21
g22
sbag7
(g8
g9
NtRp626
(dp627
g12
g122
sg14
S'Purisa'
p628
sg16
I400
sg17
g13
sg18
g13
sg19
S'/usr/share/fonts/truetype/tlwg/Purisa-Oblique.ttf'
p629
sg21
g22
sbag7
(g8
g9
NtRp630
(dp631
g12
g29
sg14
S'Kinnari'
p632
sg16
I400
sg17
g13
sg18
g13
sg19
S'/usr/share/fonts/truetype/tlwg/Kinnari-Italic.ttf'
p633
sg21
g22
sbag7
(g8
g9
NtRp634
(dp635
g12
g122
sg14
S'Sawasdee'
p636
sg16
I700
sg17
g13
sg18
g13
sg19
S'/usr/share/fonts/truetype/tlwg/Sawasdee-BoldOblique.ttf'
p637
sg21
g22
sbag7
(g8
g9
NtRp638
(dp639
g12
g13
sg14
S'Sawasdee'
p640
sg16
I700
sg17
g13
sg18
g13
sg19
S'/usr/share/fonts/truetype/tlwg/Sawasdee-Bold.ttf'
p641
sg21
g22
sbag7
(g8
g9
NtRp642
(dp643
g12
g13
sg14
S'KacstDigital'
p644
sg16
I400
sg17
g13
sg18
g13
sg19
S'/usr/share/fonts/truetype/kacst/KacstDigital.ttf'
p645
sg21
g22
sbag7
(g8
g9
NtRp646
(dp647
g12
g13
sg14
S'Saab'
p648
sg16
I400
sg17
g13
sg18
g13
sg19
S'/usr/share/fonts/truetype/ttf-punjabi-fonts/Saab.ttf'
p649
sg21
g22
sbag7
(g8
g9
NtRp650
(dp651
g12
g13
sg14
S'KacstOffice'
p652
sg16
I400
sg17
g13
sg18
g13
sg19
S'/usr/share/fonts/truetype/kacst/KacstOffice.ttf'
p653
sg21
g22
sbag7
(g8
g9
NtRp654
(dp655
g12
g13
sg14
S'Lohit Gujarati'
p656
sg16
I400
sg17
g13
sg18
g13
sg19
S'/usr/share/fonts/truetype/ttf-indic-fonts-core/lohit_gu.ttf'
p657
sg21
g22
sbag7
(g8
g9
NtRp658
(dp659
g12
g122
sg14
S'Sawasdee'
p660
sg16
I400
sg17
g13
sg18
g13
sg19
S'/usr/share/fonts/truetype/tlwg/Sawasdee-Oblique.ttf'
p661
sg21
g22
sbag7
(g8
g9
NtRp662
(dp663
g12
g13
sg14
S'NanumMyeongjo'
p664
sg16
I400
sg17
g13
sg18
g13
sg19
S'/usr/share/fonts/truetype/nanum/NanumMyeongjo.ttf'
p665
sg21
g22
sbag7
(g8
g9
NtRp666
(dp667
g12
g13
sg14
S'Khmer OS'
p668
sg16
I400
sg17
g13
sg18
g13
sg19
S'/usr/share/fonts/truetype/ttf-khmeros-core/KhmerOS.ttf'
p669
sg21
g22
sbag7
(g8
g9
NtRp670
(dp671
g12
g13
sg14
S'Loma'
p672
sg16
I400
sg17
g13
sg18
g13
sg19
S'/usr/share/fonts/truetype/tlwg/Loma.ttf'
p673
sg21
g22
sbag7
(g8
g9
NtRp674
(dp675
g12
g122
sg14
S'Garuda'
p676
sg16
I400
sg17
g13
sg18
g13
sg19
S'/usr/share/fonts/truetype/tlwg/Garuda-Oblique.ttf'
p677
sg21
g22
sbag7
(g8
g9
NtRp678
(dp679
g12
g13
sg14
S'Loma'
p680
sg16
I700
sg17
g13
sg18
g13
sg19
S'/usr/share/fonts/truetype/tlwg/Loma-Bold.ttf'
p681
sg21
g22
sbag7
(g8
g9
NtRp682
(dp683
g12
g122
sg14
S'Garuda'
p684
sg16
I700
sg17
g13
sg18
g13
sg19
S'/usr/share/fonts/truetype/tlwg/Garuda-BoldOblique.ttf'
p685
sg21
g22
sbag7
(g8
g9
NtRp686
(dp687
g12
g13
sg14
S'KacstLetter'
p688
sg16
I400
sg17
g13
sg18
g13
sg19
S'/usr/share/fonts/truetype/kacst/KacstLetter.ttf'
p689
sg21
g22
sbag7
(g8
g9
NtRp690
(dp691
g12
g13
sg14
S'KacstPen'
p692
sg16
I400
sg17
g13
sg18
g13
sg19
S'/usr/share/fonts/truetype/kacst/KacstPen.ttf'
p693
sg21
g22
sbag7
(g8
g9
NtRp694
(dp695
g12
g122
sg14
S'Tlwg Typo'
p696
sg16
I700
sg17
g13
sg18
g13
sg19
S'/usr/share/fonts/truetype/tlwg/TlwgTypo-BoldOblique.ttf'
p697
sg21
g22
sbag7
(g8
g9
NtRp698
(dp699
g12
g13
sg14
S'FreeMono'
p700
sg16
I400
sg17
g13
sg18
g13
sg19
S'/usr/share/fonts/truetype/freefont/FreeMono.ttf'
p701
sg21
g22
sbag7
(g8
g9
NtRp702
(dp703
g12
g13
sg14
S'Untitled1'
p704
sg16
I400
sg17
g13
sg18
g13
sg19
S'/usr/share/fonts/truetype/freefont/Untitled1.ttf'
p705
sg21
g22
sbag7
(g8
g9
NtRp706
(dp707
g12
g29
sg14
S'FreeSerif'
p708
sg16
I400
sg17
g13
sg18
g13
sg19
S'/usr/share/fonts/truetype/freefont/FreeSerifItalic.ttf'
p709
sg21
g22
sbag7
(g8
g9
NtRp710
(dp711
g12
g13
sg14
S'KacstTitleL'
p712
sg16
I400
sg17
g13
sg18
g13
sg19
S'/usr/share/fonts/truetype/kacst/KacstTitleL.ttf'
p713
sg21
g22
sbag7
(g8
g9
NtRp714
(dp715
g12
g13
sg14
S'KacstDecorative'
p716
sg16
I400
sg17
g13
sg18
g13
sg19
S'/usr/share/fonts/truetype/kacst/KacstDecorative.ttf'
p717
sg21
g22
sbag7
(g8
g9
NtRp718
(dp719
g12
g122
sg14
S'TlwgTypewriter'
p720
sg16
I400
sg17
g13
sg18
g13
sg19
S'/usr/share/fonts/truetype/tlwg/TlwgTypewriter-Oblique.ttf'
p721
sg21
g22
sbag7
(g8
g9
NtRp722
(dp723
g12
g29
sg14
S'Liberation Sans Narrow'
p724
sg16
I400
sg17
g200
sg18
g13
sg19
S'/usr/share/fonts/truetype/liberation/LiberationSansNarrow-Italic.ttf'
p725
sg21
g22
sbasS'defaultFamily'
p726
(dp727
S'afm'
p728
S'Helvetica'
p729
sS'ttf'
p730
S'Bitstream Vera Sans'
p731
ssS'ttffiles'
p732
(lp733
S'/usr/share/matplotlib/mpl-data/fonts/ttf/cmb10.ttf'
p734
aS'/usr/share/matplotlib/mpl-data/fonts/ttf/cmex10.ttf'
p735
aS'/usr/share/matplotlib/mpl-data/fonts/ttf/STIXNonUniIta.ttf'
p736
aS'/usr/share/matplotlib/mpl-data/fonts/ttf/STIXSizOneSymReg.ttf'
p737
aS'/usr/share/matplotlib/mpl-data/fonts/ttf/STIXSizThreeSymReg.ttf'
p738
aS'/usr/share/matplotlib/mpl-data/fonts/ttf/STIXSizTwoSymBol.ttf'
p739
aS'/usr/share/matplotlib/mpl-data/fonts/ttf/cmtt10.ttf'
p740
aS'/usr/share/matplotlib/mpl-data/fonts/ttf/STIXGeneral.ttf'
p741
aS'/usr/share/matplotlib/mpl-data/fonts/ttf/STIXSizThreeSymBol.ttf'
p742
aS'/usr/share/matplotlib/mpl-data/fonts/ttf/STIXSizFiveSymReg.ttf'
p743
aS'/usr/share/matplotlib/mpl-data/fonts/ttf/STIXSizOneSymBol.ttf'
p744
aS'/usr/share/matplotlib/mpl-data/fonts/ttf/STIXGeneralBol.ttf'
p745
aS'/usr/share/matplotlib/mpl-data/fonts/ttf/cmr10.ttf'
p746
aS'/usr/share/matplotlib/mpl-data/fonts/ttf/STIXSizTwoSymReg.ttf'
p747
aS'/usr/share/matplotlib/mpl-data/fonts/ttf/STIXNonUni.ttf'
p748
aS'/usr/share/matplotlib/mpl-data/fonts/ttf/cmsy10.ttf'
p749
aS'/usr/share/matplotlib/mpl-data/fonts/ttf/STIXNonUniBolIta.ttf'
p750
aS'/usr/share/matplotlib/mpl-data/fonts/ttf/cmss10.ttf'
p751
aS'/usr/share/matplotlib/mpl-data/fonts/ttf/STIXSizFourSymBol.ttf'
p752
aS'/usr/share/matplotlib/mpl-data/fonts/ttf/STIXGeneralItalic.ttf'
p753
aS'/usr/share/matplotlib/mpl-data/fonts/ttf/cmmi10.ttf'
p754
aS'/usr/share/matplotlib/mpl-data/fonts/ttf/STIXNonUniBol.ttf'
p755
aS'/usr/share/matplotlib/mpl-data/fonts/ttf/STIXGeneralBolIta.ttf'
p756
aS'/usr/share/matplotlib/mpl-data/fonts/ttf/STIXSizFourSymReg.ttf'
p757
aS'/usr/share/fonts/truetype/kacst/KacstTitle.ttf'
p758
aS'/usr/share/fonts/truetype/tlwg/TlwgTypo-Oblique.ttf'
p759
aS'/usr/share/fonts/truetype/ttf-indic-fonts-core/Malige-b.ttf'
p760
aS'/usr/share/fonts/truetype/tlwg/Umpush.ttf'
p761
aS'/usr/share/fonts/truetype/tlwg/Garuda-Bold.ttf'
p762
aS'/usr/share/fonts/truetype/tlwg/TlwgTypist-BoldOblique.ttf'
p763
aS'/usr/share/fonts/truetype/ttf-lyx/rsfs10.ttf'
p764
aS'/usr/share/fonts/truetype/tlwg/Loma-Oblique.ttf'
p765
aS'/usr/share/fonts/truetype/ttf-lyx/msam10.ttf'
p766
aS'/usr/share/fonts/truetype/tlwg/Norasi-Oblique.ttf'
p767
aS'/usr/share/fonts/truetype/ttf-dejavu/DejaVuSansMono.ttf'
p768
aS'/usr/share/fonts/truetype/ttf-lyx/cmmi10.ttf'
p769
aS'/usr/share/fonts/truetype/ttf-indic-fonts-core/Meera_04.ttf'
p770
aS'/usr/share/fonts/truetype/fonts-japanese-gothic.ttf'
p771
aS'/usr/share/fonts/truetype/liberation/LiberationMono-Bold.ttf'
p772
aS'/usr/share/fonts/truetype/tlwg/Umpush-LightOblique.ttf'
p773
aS'/usr/share/fonts/truetype/freefont/FreeSerifBold.ttf'
p774
aS'/usr/share/fonts/truetype/freefont/FreeMonoBoldOblique.ttf'
p775
aS'/usr/share/fonts/truetype/tlwg/TlwgTypo.ttf'
p776
aS'/usr/share/fonts/truetype/ttf-indic-fonts-core/Rachana_04.ttf'
p777
aS'/usr/share/fonts/truetype/ttf-dejavu/DejaVuSerif.ttf'
p778
aS'/usr/share/fonts/truetype/liberation/LiberationSansNarrow-Bold.ttf'
p779
aS'/usr/share/fonts/truetype/freefont/FreeSansOblique.ttf'
p780
aS'/usr/share/fonts/truetype/liberation/LiberationSans-Bold.ttf'
p781
aS'/usr/share/fonts/truetype/ttf-indic-fonts-core/lohit_hi.ttf'
p782
aS'/usr/share/fonts/truetype/liberation/LiberationMono-Regular.ttf'
p783
aS'/usr/share/fonts/truetype/ubuntu-font-family/Ubuntu-R.ttf'
p784
aS'/usr/share/fonts/truetype/ttf-lyx/eufm10.ttf'
p785
aS'/usr/share/fonts/truetype/tlwg/Garuda.ttf'
p786
aS'/usr/share/fonts/truetype/tlwg/TlwgMono-Oblique.ttf'
p787
aS'/usr/share/fonts/truetype/tlwg/TlwgTypist.ttf'
p788
aS'/usr/share/fonts/truetype/nanum/NanumGothic.ttf'
p789
aS'/usr/share/fonts/truetype/ttf-lyx/wasy10.ttf'
p790
aS'/usr/share/fonts/truetype/kacst/mry_KacstQurn.ttf'
p791
aS'/usr/share/fonts/truetype/ttf-lyx/msbm10.ttf'
p792
aS'/usr/share/fonts/truetype/tlwg/TlwgMono-Bold.ttf'
p793
aS'/usr/share/fonts/truetype/liberation/LiberationMono-Italic.ttf'
p794
aS'/usr/share/fonts/truetype/liberation/LiberationSerif-BoldItalic.ttf'
p795
aS'/usr/share/fonts/truetype/ttf-lyx/cmr10.ttf'
p796
aS'/usr/share/fonts/truetype/liberation/LiberationSerif-Bold.ttf'
p797
aS'/usr/share/fonts/truetype/kacst-one/KacstOne-Bold.ttf'
p798
aS'/usr/share/fonts/truetype/nanum/NanumMyeongjoBold.ttf'
p799
aS'/usr/share/fonts/truetype/tlwg/Waree-Bold.ttf'
p800
aS'/usr/share/fonts/truetype/lao/Phetsarath_OT.ttf'
p801
aS'/usr/share/fonts/truetype/ttf-indic-fonts-core/utkal.ttf'
p802
aS'/usr/share/fonts/truetype/kacst/KacstQurn.ttf'
p803
aS'/usr/share/fonts/truetype/ttf-indic-fonts-core/MuktiNarrow.ttf'
p804
aS'/usr/share/fonts/truetype/takao-gothic/TakaoPGothic.ttf'
p805
aS'/usr/share/fonts/truetype/kacst/KacstScreen.ttf'
p806
aS'/usr/share/fonts/truetype/ttf-indic-fonts-core/Kedage-b.ttf'
p807
aS'/usr/share/fonts/truetype/ttf-dejavu/DejaVuSerif-Bold.ttf'
p808
aS'/usr/share/fonts/truetype/ubuntu-font-family/UbuntuMono-R.ttf'
p809
aS'/usr/share/fonts/truetype/tlwg/Norasi-Bold.ttf'
p810
aS'/usr/share/fonts/truetype/tlwg/Norasi-BoldItalic.ttf'
p811
aS'/usr/share/fonts/truetype/tlwg/Umpush-Bold.ttf'
p812
aS'/usr/share/fonts/truetype/tlwg/Kinnari-BoldOblique.ttf'
p813
aS'/usr/share/fonts/truetype/liberation/LiberationSans-BoldItalic.ttf'
p814
aS'/usr/share/fonts/truetype/ttf-indic-fonts-core/Malige-n.ttf'
p815
aS'/usr/share/fonts/truetype/kacst/KacstNaskh.ttf'
p816
aS'/usr/share/fonts/truetype/ttf-indic-fonts-core/Rekha.ttf'
p817
aS'/usr/share/fonts/truetype/ttf-indic-fonts-core/Vemana.ttf'
p818
aS'/usr/share/fonts/truetype/tlwg/Norasi-BoldOblique.ttf'
p819
aS'/usr/share/fonts/truetype/tlwg/Kinnari-BoldItalic.ttf'
p820
aS'/usr/share/fonts/truetype/tlwg/Sawasdee.ttf'
p821
aS'/usr/share/fonts/truetype/kacst-one/KacstOne.ttf'
p822
aS'/usr/share/fonts/truetype/freefont/FreeSansBold.ttf'
p823
aS'/usr/share/fonts/truetype/ttf-indic-fonts-core/lohit_bn.ttf'
p824
aS'/usr/share/fonts/truetype/ubuntu-font-family/UbuntuMono-RI.ttf'
p825
aS'/usr/share/fonts/truetype/liberation/LiberationSerif-Regular.ttf'
p826
aS'/usr/share/fonts/truetype/tlwg/Purisa-Bold.ttf'
p827
aS'/usr/share/fonts/truetype/freefont/FreeMonoBold.ttf'
p828
aS'/usr/share/fonts/truetype/ttf-dejavu/DejaVuSans-Bold.ttf'
p829
aS'/usr/share/fonts/truetype/tlwg/TlwgTypist-Bold.ttf'
p830
aS'/usr/share/fonts/truetype/ubuntu-font-family/Ubuntu-L.ttf'
p831
aS'/usr/share/fonts/truetype/kacst/KacstBook.ttf'
p832
aS'/usr/share/fonts/truetype/kacst/KacstFarsi.ttf'
p833
aS'/usr/share/fonts/truetype/kacst/KacstPoster.ttf'
p834
aS'/usr/share/fonts/truetype/tlwg/Purisa.ttf'
p835
aS'/usr/share/fonts/truetype/ubuntu-font-family/Ubuntu-LI.ttf'
p836
aS'/usr/share/fonts/truetype/ttf-punjabi-fonts/lohit_pa.ttf'
p837
aS'/usr/share/fonts/truetype/ttf-indic-fonts-core/Pothana2000.ttf'
p838
aS'/usr/share/fonts/truetype/tlwg/Umpush-Oblique.ttf'
p839
aS'/usr/share/fonts/truetype/nanum/NanumGothicBold.ttf'
p840
aS'/usr/share/fonts/truetype/liberation/LiberationMono-BoldItalic.ttf'
p841
aS'/usr/share/fonts/truetype/tlwg/Purisa-BoldOblique.ttf'
p842
aS'/usr/share/fonts/truetype/tlwg/Loma-BoldOblique.ttf'
p843
aS'/usr/share/fonts/truetype/tlwg/TlwgTypewriter.ttf'
p844
aS'/usr/share/fonts/truetype/ttf-dejavu/DejaVuSans.ttf'
p845
aS'/usr/share/fonts/truetype/ubuntu-font-family/UbuntuMono-B.ttf'
p846
aS'/usr/share/fonts/truetype/ttf-lyx/esint10.ttf'
p847
aS'/usr/share/fonts/truetype/openoffice/opens___.ttf'
p848
aS'/usr/share/fonts/truetype/ttf-indic-fonts-core/gargi.ttf'
p849
aS'/usr/share/fonts/truetype/tlwg/Norasi-Italic.ttf'
p850
aS'/usr/share/fonts/truetype/ubuntu-font-family/Ubuntu-BI.ttf'
p851
aS'/usr/share/fonts/truetype/ttf-khmeros-core/KhmerOSsys.ttf'
p852
aS'/usr/share/fonts/truetype/tlwg/TlwgTypist-Oblique.ttf'
p853
aS'/usr/share/fonts/truetype/tlwg/Norasi.ttf'
p854
aS'/usr/share/fonts/truetype/ttf-indic-fonts-core/MuktiNarrowBold.ttf'
p855
aS'/usr/share/fonts/truetype/liberation/LiberationSans-Italic.ttf'
p856
aS'/usr/share/fonts/truetype/tlwg/Umpush-BoldOblique.ttf'
p857
aS'/usr/share/fonts/truetype/ubuntu-font-family/Ubuntu-B.ttf'
p858
aS'/usr/share/fonts/truetype/freefont/FreeSansBoldOblique.ttf'
p859
aS'/usr/share/fonts/truetype/tlwg/TlwgTypo-Bold.ttf'
p860
aS'/usr/share/fonts/truetype/ubuntu-font-family/Ubuntu-RI.ttf'
p861
aS'/usr/share/fonts/truetype/tlwg/Waree-Oblique.ttf'
p862
aS'/usr/share/fonts/truetype/liberation/LiberationSerif-Italic.ttf'
p863
aS'/usr/share/fonts/truetype/tlwg/TlwgTypewriter-Bold.ttf'
p864
aS'/usr/share/fonts/truetype/tlwg/Waree-BoldOblique.ttf'
p865
aS'/usr/share/fonts/truetype/freefont/FreeSans.ttf'
p866
aS'/usr/share/fonts/truetype/tlwg/Kinnari-Oblique.ttf'
p867
aS'/usr/share/fonts/truetype/ttf-dejavu/DejaVuSansMono-Bold.ttf'
p868
aS'/usr/share/fonts/truetype/freefont/FreeSerifBoldItalic.ttf'
p869
aS'/usr/share/fonts/truetype/kacst/KacstArt.ttf'
p870
aS'/usr/share/fonts/truetype/tlwg/Waree.ttf'
p871
aS'/usr/share/fonts/truetype/liberation/LiberationSansNarrow-BoldItalic.ttf'
p872
aS'/usr/share/fonts/truetype/tlwg/Umpush-Light.ttf'
p873
aS'/usr/share/fonts/truetype/ttf-indic-fonts-core/lohit_ta.ttf'
p874
aS'/usr/share/fonts/truetype/liberation/LiberationSans-Regular.ttf'
p875
aS'/usr/share/fonts/truetype/ubuntu-font-family/Ubuntu-C.ttf'
p876
aS'/usr/share/fonts/truetype/ttf-lyx/cmsy10.ttf'
p877
aS'/usr/share/fonts/truetype/tlwg/Kinnari.ttf'
p878
aS'/usr/share/fonts/truetype/ubuntu-font-family/UbuntuMono-BI.ttf'
p879
aS'/usr/share/fonts/truetype/tlwg/TlwgMono-BoldOblique.ttf'
p880
aS'/usr/share/fonts/truetype/ttf-indic-fonts-core/Kedage-n.ttf'
p881
aS'/usr/share/fonts/truetype/tlwg/Kinnari-Bold.ttf'
p882
aS'/usr/share/fonts/truetype/freefont/FreeMonoOblique.ttf'
p883
aS'/usr/share/fonts/truetype/tlwg/TlwgMono.ttf'
p884
aS'/usr/share/fonts/truetype/tlwg/TlwgTypewriter-BoldOblique.ttf'
p885
aS'/usr/share/fonts/truetype/freefont/FreeSerif.ttf'
p886
aS'/usr/share/fonts/truetype/liberation/LiberationSansNarrow-Regular.ttf'
p887
aS'/usr/share/fonts/truetype/tlwg/Purisa-Oblique.ttf'
p888
aS'/usr/share/fonts/truetype/tlwg/Kinnari-Italic.ttf'
p889
aS'/usr/share/fonts/truetype/tlwg/Sawasdee-BoldOblique.ttf'
p890
aS'/usr/share/fonts/truetype/tlwg/Sawasdee-Bold.ttf'
p891
aS'/usr/share/fonts/truetype/kacst/KacstDigital.ttf'
p892
aS'/usr/share/fonts/truetype/ttf-punjabi-fonts/Saab.ttf'
p893
aS'/usr/share/fonts/truetype/kacst/KacstOffice.ttf'
p894
aS'/usr/share/fonts/truetype/ttf-indic-fonts-core/lohit_gu.ttf'
p895
aS'/usr/share/fonts/truetype/tlwg/Sawasdee-Oblique.ttf'
p896
aS'/usr/share/fonts/truetype/nanum/NanumMyeongjo.ttf'
p897
aS'/usr/share/fonts/truetype/ttf-khmeros-core/KhmerOS.ttf'
p898
aS'/usr/share/fonts/truetype/tlwg/Loma.ttf'
p899
aS'/usr/share/fonts/truetype/tlwg/Garuda-Oblique.ttf'
p900
aS'/usr/share/fonts/truetype/tlwg/Loma-Bold.ttf'
p901
aS'/usr/share/fonts/truetype/tlwg/Garuda-BoldOblique.ttf'
p902
aS'/usr/share/fonts/truetype/kacst/KacstLetter.ttf'
p903
aS'/usr/share/fonts/truetype/kacst/KacstPen.ttf'
p904
aS'/usr/share/fonts/truetype/tlwg/TlwgTypo-BoldOblique.ttf'
p905
aS'/usr/share/fonts/truetype/freefont/FreeMono.ttf'
p906
aS'/usr/share/fonts/truetype/freefont/Untitled1.ttf'
p907
aS'/usr/share/fonts/truetype/freefont/FreeSerifItalic.ttf'
p908
aS'/usr/share/fonts/truetype/kacst/KacstTitleL.ttf'
p909
aS'/usr/share/fonts/truetype/kacst/KacstDecorative.ttf'
p910
aS'/usr/share/fonts/truetype/tlwg/TlwgTypewriter-Oblique.ttf'
p911
aS'/usr/share/fonts/truetype/liberation/LiberationSansNarrow-Italic.ttf'
p912
aS'/usr/share/fonts/truetype/ttf-lyx/cmex10.ttf'
p913
asS'_FontManager__default_weight'
p914
g13
sS'_version'
p915
I7
sS'ttf_lookup_cache'
p916
(dp917
sS'default_size'
p918
NsS'defaultFont'
p919
(dp920
g728
Nsg730
g734
ssS'afmfiles'
p921
(lp922
S'/usr/share/matplotlib/mpl-data/fonts/afm/pzcmi8a.afm'
p923
aS'/usr/share/matplotlib/mpl-data/fonts/afm/phvl8a.afm'
p924
aS'/usr/share/matplotlib/mpl-data/fonts/afm/putbi8a.afm'
p925
aS'/usr/share/matplotlib/mpl-data/fonts/pdfcorefonts/Helvetica-BoldOblique.afm'
p926
aS'/usr/share/matplotlib/mpl-data/fonts/afm/phvro8an.afm'
p927
aS'/usr/share/matplotlib/mpl-data/fonts/afm/pbkd8a.afm'
p928
aS'/usr/share/matplotlib/mpl-data/fonts/afm/pcrbo8a.afm'
p929
aS'/usr/share/matplotlib/mpl-data/fonts/pdfcorefonts/Helvetica-Bold.afm'
p930
aS'/usr/share/matplotlib/mpl-data/fonts/pdfcorefonts/Times-BoldItalic.afm'
p931
aS'/usr/share/matplotlib/mpl-data/fonts/afm/putr8a.afm'
p932
aS'/usr/share/matplotlib/mpl-data/fonts/afm/pagdo8a.afm'
p933
aS'/usr/share/matplotlib/mpl-data/fonts/afm/pcrr8a.afm'
p934
aS'/usr/share/matplotlib/mpl-data/fonts/afm/pncb8a.afm'
p935
aS'/usr/share/matplotlib/mpl-data/fonts/pdfcorefonts/Courier-Bold.afm'
p936
aS'/usr/share/matplotlib/mpl-data/fonts/afm/pncbi8a.afm'
p937
aS'/usr/share/matplotlib/mpl-data/fonts/afm/cmex10.afm'
p938
aS'/usr/share/matplotlib/mpl-data/fonts/afm/cmtt10.afm'
p939
aS'/usr/share/matplotlib/mpl-data/fonts/pdfcorefonts/Symbol.afm'
p940
aS'/usr/share/matplotlib/mpl-data/fonts/afm/phvr8an.afm'
p941
aS'/usr/share/matplotlib/mpl-data/fonts/afm/phvro8a.afm'
p942
aS'/usr/share/matplotlib/mpl-data/fonts/afm/ptmr8a.afm'
p943
aS'/usr/share/matplotlib/mpl-data/fonts/afm/pplbi8a.afm'
p944
aS'/usr/share/matplotlib/mpl-data/fonts/afm/phvb8an.afm'
p945
aS'/usr/share/matplotlib/mpl-data/fonts/afm/cmsy10.afm'
p946
aS'/usr/share/matplotlib/mpl-data/fonts/afm/pagk8a.afm'
p947
aS'/usr/share/matplotlib/mpl-data/fonts/pdfcorefonts/Courier-BoldOblique.afm'
p948
aS'/usr/share/matplotlib/mpl-data/fonts/afm/putb8a.afm'
p949
aS'/usr/share/matplotlib/mpl-data/fonts/afm/cmmi10.afm'
p950
aS'/usr/share/matplotlib/mpl-data/fonts/afm/pagko8a.afm'
p951
aS'/usr/share/matplotlib/mpl-data/fonts/afm/phvbo8an.afm'
p952
aS'/usr/share/matplotlib/mpl-data/fonts/afm/phvbo8a.afm'
p953
aS'/usr/share/matplotlib/mpl-data/fonts/afm/cmr10.afm'
p954
aS'/usr/share/matplotlib/mpl-data/fonts/pdfcorefonts/Times-Bold.afm'
p955
aS'/usr/share/matplotlib/mpl-data/fonts/afm/ptmb8a.afm'
p956
aS'/usr/share/matplotlib/mpl-data/fonts/afm/phvlo8a.afm'
p957
aS'/usr/share/matplotlib/mpl-data/fonts/afm/phvb8a.afm'
p958
aS'/usr/share/matplotlib/mpl-data/fonts/afm/pplb8a.afm'
p959
aS'/usr/share/matplotlib/mpl-data/fonts/afm/pzdr.afm'
p960
aS'/usr/share/matplotlib/mpl-data/fonts/afm/ptmri8a.afm'
p961
aS'/usr/share/matplotlib/mpl-data/fonts/afm/pplr8a.afm'
p962
aS'/usr/share/matplotlib/mpl-data/fonts/afm/pbkl8a.afm'
p963
aS'/usr/share/matplotlib/mpl-data/fonts/pdfcorefonts/Times-Roman.afm'
p964
aS'/usr/share/matplotlib/mpl-data/fonts/afm/pcrro8a.afm'
p965
aS'/usr/share/matplotlib/mpl-data/fonts/pdfcorefonts/ZapfDingbats.afm'
p966
aS'/usr/share/matplotlib/mpl-data/fonts/afm/psyr.afm'
p967
aS'/usr/share/matplotlib/mpl-data/fonts/pdfcorefonts/Helvetica.afm'
p968
aS'/usr/share/matplotlib/mpl-data/fonts/afm/pplri8a.afm'
p969
aS'/usr/share/matplotlib/mpl-data/fonts/afm/ptmbi8a.afm'
p970
aS'/usr/share/matplotlib/mpl-data/fonts/afm/pbkli8a.afm'
p971
aS'/usr/share/matplotlib/mpl-data/fonts/pdfcorefonts/Courier-Oblique.afm'
p972
aS'/usr/share/matplotlib/mpl-data/fonts/pdfcorefonts/Courier.afm'
p973
aS'/usr/share/matplotlib/mpl-data/fonts/afm/pcrb8a.afm'
p974
aS'/usr/share/matplotlib/mpl-data/fonts/afm/pagd8a.afm'
p975
aS'/usr/share/matplotlib/mpl-data/fonts/afm/pncr8a.afm'
p976
aS'/usr/share/matplotlib/mpl-data/fonts/pdfcorefonts/Times-Italic.afm'
p977
aS'/usr/share/matplotlib/mpl-data/fonts/afm/pbkdi8a.afm'
p978
aS'/usr/share/matplotlib/mpl-data/fonts/afm/putri8a.afm'
p979
aS'/usr/share/matplotlib/mpl-data/fonts/pdfcorefonts/Helvetica-Oblique.afm'
p980
aS'/usr/share/matplotlib/mpl-data/fonts/afm/phvr8a.afm'
p981
aS'/usr/share/matplotlib/mpl-data/fonts/afm/pncri8a.afm'
p982
aS'/usr/share/fonts/type1/gsfonts/n021024l.afm'
p983
aS'/usr/share/fonts/type1/gsfonts/s050000l.afm'
p984
aS'/usr/share/fonts/type1/gsfonts/n021004l.afm'
p985
aS'/usr/share/fonts/X11/Type1/lmss10.afm'
p986
aS'/usr/share/fonts/X11/Type1/lmtt10.afm'
p987
aS'/usr/share/fonts/type1/gsfonts/n019024l.afm'
p988
aS'/usr/share/fonts/type1/gsfonts/d050000l.afm'
p989
aS'/usr/share/fonts/type1/gsfonts/p052004l.afm'
p990
aS'/usr/share/fonts/X11/Type1/lmvtko10.afm'
p991
aS'/usr/share/fonts/X11/Type1/lmbxi10.afm'
p992
aS'/usr/share/fonts/X11/Type1/lmssqo8.afm'
p993
aS'/usr/share/fonts/type1/gsfonts/b018012l.afm'
p994
aS'/usr/share/fonts/type1/gsfonts/n022003l.afm'
p995
aS'/usr/share/fonts/X11/Type1/c0648bt_.afm'
p996
aS'/usr/share/fonts/type1/gsfonts/n019063l.afm'
p997
aS'/usr/share/fonts/type1/gsfonts/a010033l.afm'
p998
aS'/usr/share/fonts/type1/gsfonts/n019044l.afm'
p999
aS'/usr/share/fonts/type1/gsfonts/z003034l.afm'
p1000
aS'/usr/share/fonts/X11/Type1/Symbol.afm'
p1001
aS'/usr/share/fonts/type1/gsfonts/n022024l.afm'
p1002
aS'/usr/share/fonts/X11/Type1/lmtcsc10.afm'
p1003
aS'/usr/share/fonts/X11/Type1/lmtl10.afm'
p1004
aS'/usr/share/fonts/type1/gsfonts/c059033l.afm'
p1005
aS'/usr/share/fonts/X11/Type1/lmb10.afm'
p1006
aS'/usr/share/fonts/X11/Type1/lmssbx10.afm'
p1007
aS'/usr/share/fonts/X11/Type1/c0633bt_.afm'
p1008
aS'/usr/share/fonts/X11/Type1/lmtk10.afm'
p1009
aS'/usr/share/fonts/X11/Type1/lmdunh10.afm'
p1010
aS'/usr/share/fonts/X11/Type1/c0611bt_.afm'
p1011
aS'/usr/share/fonts/X11/Type1/c0649bt_.afm'
p1012
aS'/usr/share/fonts/X11/Type1/lmbx10.afm'
p1013
aS'/usr/share/fonts/type1/gsfonts/n019064l.afm'
p1014
aS'/usr/share/fonts/type1/gsfonts/n019003l.afm'
p1015
aS'/usr/share/fonts/X11/Type1/lmtto10.afm'
p1016
aS'/usr/share/fonts/type1/gsfonts/p052024l.afm'
p1017
aS'/usr/share/fonts/type1/gsfonts/b018035l.afm'
p1018
aS'/usr/share/fonts/X11/Type1/lmvtt10.afm'
p1019
aS'/usr/share/fonts/X11/Type1/lmduno10.afm'
p1020
aS'/usr/share/fonts/type1/gsfonts/a010013l.afm'
p1021
aS'/usr/share/fonts/X11/Type1/c0582bt_.afm'
p1022
aS'/usr/share/fonts/X11/Type1/lmssdo10.afm'
p1023
aS'/usr/share/fonts/type1/gsfonts/n022004l.afm'
p1024
aS'/usr/share/fonts/X11/Type1/lmssq8.afm'
p1025
aS'/usr/share/fonts/type1/gsfonts/p052023l.afm'
p1026
aS'/usr/share/fonts/type1/mathml/Symbol.afm'
p1027
aS'/usr/share/fonts/X11/Type1/lmssbo10.afm'
p1028
aS'/usr/share/fonts/type1/gsfonts/n021003l.afm'
p1029
aS'/usr/share/fonts/type1/gsfonts/n019043l.afm'
p1030
aS'/usr/share/fonts/X11/Type1/lmcsc10.afm'
p1031
aS'/usr/share/fonts/type1/gsfonts/n019023l.afm'
p1032
aS'/usr/share/fonts/X11/Type1/lmvtl10.afm'
p1033
aS'/usr/share/fonts/X11/Type1/lmtko10.afm'
p1034
aS'/usr/share/fonts/X11/Type1/lmtti10.afm'
p1035
aS'/usr/share/fonts/X11/Type1/lmbo10.afm'
p1036
aS'/usr/share/fonts/type1/gsfonts/c059036l.afm'
p1037
aS'/usr/share/fonts/X11/Type1/lmri10.afm'
p1038
aS'/usr/share/fonts/type1/gsfonts/n019004l.afm'
p1039
aS'/usr/share/fonts/X11/Type1/c0583bt_.afm'
p1040
aS'/usr/share/fonts/X11/Type1/lmssqbo8.afm'
p1041
aS'/usr/share/fonts/type1/gsfonts/p052003l.afm'
p1042
aS'/usr/share/fonts/X11/Type1/lmr10.afm'
p1043
aS'/usr/share/fonts/type1/gsfonts/a010015l.afm'
p1044
aS'/usr/share/fonts/X11/Type1/lmssqbx8.afm'
p1045
aS'/usr/share/fonts/X11/Type1/lmro10.afm'
p1046
aS'/usr/share/fonts/X11/Type1/lmvtto10.afm'
p1047
aS'/usr/share/fonts/X11/Type1/lmssdc10.afm'
p1048
aS'/usr/share/fonts/type1/gsfonts/b018032l.afm'
p1049
aS'/usr/share/fonts/X11/Type1/lmcsco10.afm'
p1050
aS'/usr/share/fonts/X11/Type1/lmvtk10.afm'
p1051
aS'/usr/share/fonts/type1/gsfonts/c059016l.afm'
p1052
aS'/usr/share/fonts/X11/Type1/lmbxo10.afm'
p1053
aS'/usr/share/fonts/type1/gsfonts/n022023l.afm'
p1054
aS'/usr/share/fonts/X11/Type1/lmtlco10.afm'
p1055
aS'/usr/share/fonts/X11/Type1/lmtlc10.afm'
p1056
aS'/usr/share/fonts/type1/gsfonts/n021023l.afm'
p1057
aS'/usr/share/fonts/X11/Type1/lmtlo10.afm'
p1058
aS'/usr/share/fonts/X11/Type1/c0632bt_.afm'
p1059
aS'/usr/share/fonts/X11/Type1/lmtcso10.afm'
p1060
aS'/usr/share/fonts/type1/gsfonts/a010035l.afm'
p1061
aS'/usr/share/fonts/X11/Type1/lmsso10.afm'
p1062
aS'/usr/share/fonts/type1/gsfonts/c059013l.afm'
p1063
aS'/usr/share/fonts/X11/Type1/c0419bt_.afm'
p1064
aS'/usr/share/fonts/X11/Type1/lmvtlo10.afm'
p1065
aS'/usr/share/fonts/type1/gsfonts/b018015l.afm'
p1066
aS'/usr/share/fonts/X11/Type1/lmu10.afm'
p1067
asS'afmlist'
p1068
(lp1069
g7
(g8
g9
NtRp1070
(dp1071
g12
g29
sg14
S'ITC Zapf Chancery'
p1072
sg16
I500
sg17
g13
sg18
g13
sg19
g923
sg21
g22
sbag7
(g8
g9
NtRp1073
(dp1074
g12
g13
sg14
S'Helvetica'
p1075
sg16
I200
sg17
g13
sg18
g13
sg19
g924
sg21
g22
sbag7
(g8
g9
NtRp1076
(dp1077
g12
g29
sg14
S'Utopia'
p1078
sg16
I700
sg17
g13
sg18
g13
sg19
g925
sg21
g22
sbag7
(g8
g9
NtRp1079
(dp1080
g12
g29
sg14
S'Helvetica'
p1081
sg16
I700
sg17
g13
sg18
g13
sg19
g926
sg21
g22
sbag7
(g8
g9
NtRp1082
(dp1083
g12
g29
sg14
S'Helvetica'
p1084
sg16
I500
sg17
g200
sg18
g13
sg19
g927
sg21
g22
sbag7
(g8
g9
NtRp1085
(dp1086
g12
g13
sg14
S'ITC Bookman'
p1087
sg16
I600
sg17
g13
sg18
g13
sg19
g928
sg21
g22
sbag7
(g8
g9
NtRp1088
(dp1089
g12
g29
sg14
S'Courier'
p1090
sg16
I700
sg17
g13
sg18
g13
sg19
g929
sg21
g22
sbag7
(g8
g9
NtRp1091
(dp1092
g12
g13
sg14
S'Helvetica'
p1093
sg16
I700
sg17
g13
sg18
g13
sg19
g930
sg21
g22
sbag7
(g8
g9
NtRp1094
(dp1095
g12
g29
sg14
S'Times'
p1096
sg16
I700
sg17
g13
sg18
g13
sg19
g931
sg21
g22
sbag7
(g8
g9
NtRp1097
(dp1098
g12
g13
sg14
S'Utopia'
p1099
sg16
I400
sg17
g13
sg18
g13
sg19
g932
sg21
g22
sbag7
(g8
g9
NtRp1100
(dp1101
g12
g29
sg14
S'ITC Avant Garde Gothic'
p1102
sg16
I600
sg17
g13
sg18
g13
sg19
g933
sg21
g22
sbag7
(g8
g9
NtRp1103
(dp1104
g12
g13
sg14
S'Courier'
p1105
sg16
I500
sg17
g13
sg18
g13
sg19
g934
sg21
g22
sbag7
(g8
g9
NtRp1106
(dp1107
g12
g13
sg14
S'New Century Schoolbook'
p1108
sg16
I700
sg17
g13
sg18
g13
sg19
g935
sg21
g22
sbag7
(g8
g9
NtRp1109
(dp1110
g12
g13
sg14
S'Courier'
p1111
sg16
I700
sg17
g13
sg18
g13
sg19
g936
sg21
g22
sbag7
(g8
g9
NtRp1112
(dp1113
g12
g29
sg14
S'New Century Schoolbook'
p1114
sg16
I700
sg17
g13
sg18
g13
sg19
g937
sg21
g22
sbag7
(g8
g9
NtRp1115
(dp1116
g12
g13
sg14
S'Computer Modern'
p1117
sg16
I500
sg17
g13
sg18
g13
sg19
g938
sg21
g22
sbag7
(g8
g9
NtRp1118
(dp1119
g12
g13
sg14
S'Computer Modern'
p1120
sg16
I500
sg17
g13
sg18
g13
sg19
g939
sg21
g22
sbag7
(g8
g9
NtRp1121
(dp1122
g12
g13
sg14
S'Symbol'
p1123
sg16
I500
sg17
g13
sg18
g13
sg19
g940
sg21
g22
sbag7
(g8
g9
NtRp1124
(dp1125
g12
g13
sg14
S'Helvetica'
p1126
sg16
I500
sg17
g200
sg18
g13
sg19
g941
sg21
g22
sbag7
(g8
g9
NtRp1127
(dp1128
g12
g29
sg14
S'Helvetica'
p1129
sg16
I500
sg17
g13
sg18
g13
sg19
g942
sg21
g22
sbag7
(g8
g9
NtRp1130
(dp1131
g12
g13
sg14
S'Times'
p1132
sg16
I500
sg17
g13
sg18
g13
sg19
g943
sg21
g22
sbag7
(g8
g9
NtRp1133
(dp1134
g12
g29
sg14
S'Palatino'
p1135
sg16
I700
sg17
g13
sg18
g13
sg19
g944
sg21
g22
sbag7
(g8
g9
NtRp1136
(dp1137
g12
g13
sg14
S'Helvetica'
p1138
sg16
I700
sg17
g200
sg18
g13
sg19
g945
sg21
g22
sbag7
(g8
g9
NtRp1139
(dp1140
g12
g29
sg14
S'Computer Modern'
p1141
sg16
I500
sg17
g13
sg18
g13
sg19
g946
sg21
g22
sbag7
(g8
g9
NtRp1142
(dp1143
g12
g13
sg14
S'ITC Avant Garde Gothic'
p1144
sg16
I400
sg17
g13
sg18
g13
sg19
g947
sg21
g22
sbag7
(g8
g9
NtRp1145
(dp1146
g12
g29
sg14
S'Courier'
p1147
sg16
I700
sg17
g13
sg18
g13
sg19
g948
sg21
g22
sbag7
(g8
g9
NtRp1148
(dp1149
g12
g13
sg14
S'Utopia'
p1150
sg16
I700
sg17
g13
sg18
g13
sg19
g949
sg21
g22
sbag7
(g8
g9
NtRp1151
(dp1152
g12
g29
sg14
S'Computer Modern'
p1153
sg16
I500
sg17
g13
sg18
g13
sg19
g950
sg21
g22
sbag7
(g8
g9
NtRp1154
(dp1155
g12
g29
sg14
S'ITC Avant Garde Gothic'
p1156
sg16
I400
sg17
g13
sg18
g13
sg19
g951
sg21
g22
sbag7
(g8
g9
NtRp1157
(dp1158
g12
g29
sg14
S'Helvetica'
p1159
sg16
I700
sg17
g200
sg18
g13
sg19
g952
sg21
g22
sbag7
(g8
g9
NtRp1160
(dp1161
g12
g29
sg14
S'Helvetica'
p1162
sg16
I700
sg17
g13
sg18
g13
sg19
g953
sg21
g22
sbag7
(g8
g9
NtRp1163
(dp1164
g12
g13
sg14
S'Computer Modern'
p1165
sg16
I500
sg17
g13
sg18
g13
sg19
g954
sg21
g22
sbag7
(g8
g9
NtRp1166
(dp1167
g12
g13
sg14
S'Times'
p1168
sg16
I700
sg17
g13
sg18
g13
sg19
g955
sg21
g22
sbag7
(g8
g9
NtRp1169
(dp1170
g12
g13
sg14
S'Times'
p1171
sg16
I700
sg17
g13
sg18
g13
sg19
g956
sg21
g22
sbag7
(g8
g9
NtRp1172
(dp1173
g12
g29
sg14
S'Helvetica'
p1174
sg16
I200
sg17
g13
sg18
g13
sg19
g957
sg21
g22
sbag7
(g8
g9
NtRp1175
(dp1176
g12
g13
sg14
S'Helvetica'
p1177
sg16
I700
sg17
g13
sg18
g13
sg19
g958
sg21
g22
sbag7
(g8
g9
NtRp1178
(dp1179
g12
g13
sg14
S'Palatino'
p1180
sg16
I700
sg17
g13
sg18
g13
sg19
g959
sg21
g22
sbag7
(g8
g9
NtRp1181
(dp1182
g12
g13
sg14
S'ITC Zapf Dingbats'
p1183
sg16
I500
sg17
g13
sg18
g13
sg19
g960
sg21
g22
sbag7
(g8
g9
NtRp1184
(dp1185
g12
g29
sg14
S'Times'
p1186
sg16
I500
sg17
g13
sg18
g13
sg19
g961
sg21
g22
sbag7
(g8
g9
NtRp1187
(dp1188
g12
g13
sg14
S'Palatino'
p1189
sg16
I500
sg17
g13
sg18
g13
sg19
g962
sg21
g22
sbag7
(g8
g9
NtRp1190
(dp1191
g12
g13
sg14
S'ITC Bookman'
p1192
sg16
I200
sg17
g13
sg18
g13
sg19
g963
sg21
g22
sbag7
(g8
g9
NtRp1193
(dp1194
g12
g13
sg14
S'Times'
p1195
sg16
I500
sg17
g13
sg18
g13
sg19
g964
sg21
g22
sbag7
(g8
g9
NtRp1196
(dp1197
g12
g29
sg14
S'Courier'
p1198
sg16
I500
sg17
g13
sg18
g13
sg19
g965
sg21
g22
sbag7
(g8
g9
NtRp1199
(dp1200
g12
g13
sg14
S'ZapfDingbats'
p1201
sg16
I500
sg17
g13
sg18
g13
sg19
g966
sg21
g22
sbag7
(g8
g9
NtRp1202
(dp1203
g12
g13
sg14
S'Symbol'
p1204
sg16
I500
sg17
g13
sg18
g13
sg19
g967
sg21
g22
sbag7
(g8
g9
NtRp1205
(dp1206
g12
g13
sg14
S'Helvetica'
p1207
sg16
I500
sg17
g13
sg18
g13
sg19
g968
sg21
g22
sbag7
(g8
g9
NtRp1208
(dp1209
g12
g29
sg14
S'Palatino'
p1210
sg16
I500
sg17
g13
sg18
g13
sg19
g969
sg21
g22
sbag7
(g8
g9
NtRp1211
(dp1212
g12
g29
sg14
S'Times'
p1213
sg16
I700
sg17
g13
sg18
g13
sg19
g970
sg21
g22
sbag7
(g8
g9
NtRp1214
(dp1215
g12
g29
sg14
S'ITC Bookman'
p1216
sg16
I200
sg17
g13
sg18
g13
sg19
g971
sg21
g22
sbag7
(g8
g9
NtRp1217
(dp1218
g12
g29
sg14
S'Courier'
p1219
sg16
I500
sg17
g13
sg18
g13
sg19
g972
sg21
g22
sbag7
(g8
g9
NtRp1220
(dp1221
g12
g13
sg14
S'Courier'
p1222
sg16
I500
sg17
g13
sg18
g13
sg19
g973
sg21
g22
sbag7
(g8
g9
NtRp1223
(dp1224
g12
g13
sg14
S'Courier'
p1225
sg16
I700
sg17
g13
sg18
g13
sg19
g974
sg21
g22
sbag7
(g8
g9
NtRp1226
(dp1227
g12
g13
sg14
S'ITC Avant Garde Gothic'
p1228
sg16
I600
sg17
g13
sg18
g13
sg19
g975
sg21
g22
sbag7
(g8
g9
NtRp1229
(dp1230
g12
g13
sg14
S'New Century Schoolbook'
p1231
sg16
I500
sg17
g13
sg18
g13
sg19
g976
sg21
g22
sbag7
(g8
g9
NtRp1232
(dp1233
g12
g29
sg14
S'Times'
p1234
sg16
I500
sg17
g13
sg18
g13
sg19
g977
sg21
g22
sbag7
(g8
g9
NtRp1235
(dp1236
g12
g29
sg14
S'ITC Bookman'
p1237
sg16
I600
sg17
g13
sg18
g13
sg19
g978
sg21
g22
sbag7
(g8
g9
NtRp1238
(dp1239
g12
g29
sg14
S'Utopia'
p1240
sg16
I400
sg17
g13
sg18
g13
sg19
g979
sg21
g22
sbag7
(g8
g9
NtRp1241
(dp1242
g12
g29
sg14
S'Helvetica'
p1243
sg16
I500
sg17
g13
sg18
g13
sg19
g980
sg21
g22
sbag7
(g8
g9
NtRp1244
(dp1245
g12
g13
sg14
S'Helvetica'
p1246
sg16
I500
sg17
g13
sg18
g13
sg19
g981
sg21
g22
sbag7
(g8
g9
NtRp1247
(dp1248
g12
g29
sg14
S'New Century Schoolbook'
p1249
sg16
I500
sg17
g13
sg18
g13
sg19
g982
sg21
g22
sbag7
(g8
g9
NtRp1250
(dp1251
g12
g29
sg14
S'Nimbus Roman No9 L'
p1252
sg16
I700
sg17
g13
sg18
g13
sg19
g983
sg21
g22
sbag7
(g8
g9
NtRp1253
(dp1254
g12
g13
sg14
S'Standard Symbols L'
p1255
sg16
I400
sg17
g13
sg18
g13
sg19
g984
sg21
g22
sbag7
(g8
g9
NtRp1256
(dp1257
g12
g13
sg14
S'Nimbus Roman No9 L'
p1258
sg16
I700
sg17
g13
sg18
g13
sg19
g985
sg21
g22
sbag7
(g8
g9
NtRp1259
(dp1260
g12
g13
sg14
S'LMSans10'
p1261
sg16
I400
sg17
g13
sg18
g13
sg19
g986
sg21
g22
sbag7
(g8
g9
NtRp1262
(dp1263
g12
g13
sg14
S'LMMono10'
p1264
sg16
I400
sg17
g13
sg18
g13
sg19
g987
sg21
g22
sbag7
(g8
g9
NtRp1265
(dp1266
g12
g29
sg14
S'Nimbus Sans L'
p1267
sg16
I700
sg17
g13
sg18
g13
sg19
g988
sg21
g22
sbag7
(g8
g9
NtRp1268
(dp1269
g12
g13
sg14
S'Dingbats'
p1270
sg16
I400
sg17
g13
sg18
g13
sg19
g989
sg21
g22
sbag7
(g8
g9
NtRp1271
(dp1272
g12
g13
sg14
S'URW Palladio L'
p1273
sg16
I700
sg17
g13
sg18
g13
sg19
g990
sg21
g22
sbag7
(g8
g9
NtRp1274
(dp1275
g12
g29
sg14
S'LMMonoPropLt10'
p1276
sg16
I700
sg17
g13
sg18
g13
sg19
g991
sg21
g22
sbag7
(g8
g9
NtRp1277
(dp1278
g12
g29
sg14
S'LMRoman10'
p1279
sg16
I700
sg17
g13
sg18
g13
sg19
g992
sg21
g22
sbag7
(g8
g9
NtRp1280
(dp1281
g12
g29
sg14
S'LMSansQuot8'
p1282
sg16
I400
sg17
g13
sg18
g13
sg19
g993
sg21
g22
sbag7
(g8
g9
NtRp1283
(dp1284
g12
g13
sg14
S'URW Bookman L'
p1285
sg16
I400
sg17
g13
sg18
g13
sg19
g994
sg21
g22
sbag7
(g8
g9
NtRp1286
(dp1287
g12
g13
sg14
S'Nimbus Mono L'
p1288
sg16
I400
sg17
g13
sg18
g13
sg19
g995
sg21
g22
sbag7
(g8
g9
NtRp1289
(dp1290
g12
g13
sg14
S'Bitstream Charter'
p1291
sg16
I400
sg17
g13
sg18
g13
sg19
g996
sg21
g22
sbag7
(g8
g9
NtRp1292
(dp1293
g12
g29
sg14
S'Nimbus Sans L'
p1294
sg16
I400
sg17
g200
sg18
g13
sg19
g997
sg21
g22
sbag7
(g8
g9
NtRp1295
(dp1296
g12
g29
sg14
S'URW Gothic L'
p1297
sg16
I400
sg17
g13
sg18
g13
sg19
g998
sg21
g22
sbag7
(g8
g9
NtRp1298
(dp1299
g12
g13
sg14
S'Nimbus Sans L'
p1300
sg16
I700
sg17
g200
sg18
g13
sg19
g999
sg21
g22
sbag7
(g8
g9
NtRp1301
(dp1302
g12
g29
sg14
S'URW Chancery L'
p1303
sg16
I500
sg17
g13
sg18
g13
sg19
g1000
sg21
g22
sbag7
(g8
g9
NtRp1304
(dp1305
g12
g29
sg14
S'Nimbus Mono L'
p1306
sg16
I700
sg17
g13
sg18
g13
sg19
g1002
sg21
g22
sbag7
(g8
g9
NtRp1307
(dp1308
g12
g13
sg14
S'LMMonoCaps10'
p1309
sg16
I400
sg17
g13
sg18
g13
sg19
g1003
sg21
g22
sbag7
(g8
g9
NtRp1310
(dp1311
g12
g13
sg14
S'LMMonoLt10'
p1312
sg16
I200
sg17
g13
sg18
g13
sg19
g1004
sg21
g22
sbag7
(g8
g9
NtRp1313
(dp1314
g12
g29
sg14
S'Century Schoolbook L'
p1315
sg16
I400
sg17
g13
sg18
g13
sg19
g1005
sg21
g22
sbag7
(g8
g9
NtRp1316
(dp1317
g12
g13
sg14
S'LMRomanDemi10'
p1318
sg16
I600
sg17
g13
sg18
g13
sg19
g1006
sg21
g22
sbag7
(g8
g9
NtRp1319
(dp1320
g12
g13
sg14
S'LMSans10'
p1321
sg16
I700
sg17
g13
sg18
g13
sg19
g1007
sg21
g22
sbag7
(g8
g9
NtRp1322
(dp1323
g12
g29
sg14
S'Bitstream Charter'
p1324
sg16
I700
sg17
g13
sg18
g13
sg19
g1008
sg21
g22
sbag7
(g8
g9
NtRp1325
(dp1326
g12
g13
sg14
S'LMMonoLt10'
p1327
sg16
I700
sg17
g13
sg18
g13
sg19
g1009
sg21
g22
sbag7
(g8
g9
NtRp1328
(dp1329
g12
g13
sg14
S'LMRomanDunh10'
p1330
sg16
I400
sg17
g13
sg18
g13
sg19
g1010
sg21
g22
sbag7
(g8
g9
NtRp1331
(dp1332
g12
g29
sg14
S'Courier 10 Pitch'
p1333
sg16
I700
sg17
g13
sg18
g13
sg19
g1011
sg21
g22
sbag7
(g8
g9
NtRp1334
(dp1335
g12
g29
sg14
S'Bitstream Charter'
p1336
sg16
I400
sg17
g13
sg18
g13
sg19
g1012
sg21
g22
sbag7
(g8
g9
NtRp1337
(dp1338
g12
g13
sg14
S'LMRoman10'
p1339
sg16
I700
sg17
g13
sg18
g13
sg19
g1013
sg21
g22
sbag7
(g8
g9
NtRp1340
(dp1341
g12
g29
sg14
S'Nimbus Sans L'
p1342
sg16
I700
sg17
g200
sg18
g13
sg19
g1014
sg21
g22
sbag7
(g8
g9
NtRp1343
(dp1344
g12
g13
sg14
S'Nimbus Sans L'
p1345
sg16
I400
sg17
g13
sg18
g13
sg19
g1015
sg21
g22
sbag7
(g8
g9
NtRp1346
(dp1347
g12
g29
sg14
S'LMMonoSlant10'
p1348
sg16
I400
sg17
g13
sg18
g13
sg19
g1016
sg21
g22
sbag7
(g8
g9
NtRp1349
(dp1350
g12
g29
sg14
S'URW Palladio L'
p1351
sg16
I700
sg17
g13
sg18
g13
sg19
g1017
sg21
g22
sbag7
(g8
g9
NtRp1352
(dp1353
g12
g29
sg14
S'URW Bookman L'
p1354
sg16
I700
sg17
g13
sg18
g13
sg19
g1018
sg21
g22
sbag7
(g8
g9
NtRp1355
(dp1356
g12
g13
sg14
S'LMMonoProp10'
p1357
sg16
I400
sg17
g13
sg18
g13
sg19
g1019
sg21
g22
sbag7
(g8
g9
NtRp1358
(dp1359
g12
g29
sg14
S'LMRomanDunh10'
p1360
sg16
I400
sg17
g13
sg18
g13
sg19
g1020
sg21
g22
sbag7
(g8
g9
NtRp1361
(dp1362
g12
g13
sg14
S'URW Gothic L'
p1363
sg16
I400
sg17
g13
sg18
g13
sg19
g1021
sg21
g22
sbag7
(g8
g9
NtRp1364
(dp1365
g12
g29
sg14
S'Courier 10 Pitch'
p1366
sg16
I400
sg17
g13
sg18
g13
sg19
g1022
sg21
g22
sbag7
(g8
g9
NtRp1367
(dp1368
g12
g29
sg14
S'LMSansDemiCond10'
p1369
sg16
I600
sg17
g200
sg18
g13
sg19
g1023
sg21
g22
sbag7
(g8
g9
NtRp1370
(dp1371
g12
g13
sg14
S'Nimbus Mono L'
p1372
sg16
I700
sg17
g13
sg18
g13
sg19
g1024
sg21
g22
sbag7
(g8
g9
NtRp1373
(dp1374
g12
g13
sg14
S'LMSansQuot8'
p1375
sg16
I400
sg17
g13
sg18
g13
sg19
g1025
sg21
g22
sbag7
(g8
g9
NtRp1376
(dp1377
g12
g29
sg14
S'URW Palladio L'
p1378
sg16
I400
sg17
g13
sg18
g13
sg19
g1026
sg21
g22
sbag7
(g8
g9
NtRp1379
(dp1380
g12
g29
sg14
S'LMSans10'
p1381
sg16
I700
sg17
g13
sg18
g13
sg19
g1028
sg21
g22
sbag7
(g8
g9
NtRp1382
(dp1383
g12
g13
sg14
S'Nimbus Roman No9 L'
p1384
sg16
I400
sg17
g13
sg18
g13
sg19
g1029
sg21
g22
sbag7
(g8
g9
NtRp1385
(dp1386
g12
g13
sg14
S'Nimbus Sans L'
p1387
sg16
I400
sg17
g200
sg18
g13
sg19
g1030
sg21
g22
sbag7
(g8
g9
NtRp1388
(dp1389
g12
g13
sg14
S'LMRomanCaps10'
p1390
sg16
I400
sg17
g13
sg18
g13
sg19
g1031
sg21
g22
sbag7
(g8
g9
NtRp1391
(dp1392
g12
g29
sg14
S'Nimbus Sans L'
p1393
sg16
I400
sg17
g13
sg18
g13
sg19
g1032
sg21
g22
sbag7
(g8
g9
NtRp1394
(dp1395
g12
g13
sg14
S'LMMonoPropLt10'
p1396
sg16
I200
sg17
g13
sg18
g13
sg19
g1033
sg21
g22
sbag7
(g8
g9
NtRp1397
(dp1398
g12
g29
sg14
S'LMMonoLt10'
p1399
sg16
I700
sg17
g13
sg18
g13
sg19
g1034
sg21
g22
sbag7
(g8
g9
NtRp1400
(dp1401
g12
g29
sg14
S'LMMono10'
p1402
sg16
I400
sg17
g13
sg18
g13
sg19
g1035
sg21
g22
sbag7
(g8
g9
NtRp1403
(dp1404
g12
g29
sg14
S'LMRomanDemi10'
p1405
sg16
I600
sg17
g13
sg18
g13
sg19
g1036
sg21
g22
sbag7
(g8
g9
NtRp1406
(dp1407
g12
g29
sg14
S'Century Schoolbook L'
p1408
sg16
I700
sg17
g13
sg18
g13
sg19
g1037
sg21
g22
sbag7
(g8
g9
NtRp1409
(dp1410
g12
g29
sg14
S'LMRoman10'
p1411
sg16
I400
sg17
g13
sg18
g13
sg19
g1038
sg21
g22
sbag7
(g8
g9
NtRp1412
(dp1413
g12
g13
sg14
S'Nimbus Sans L'
p1414
sg16
I700
sg17
g13
sg18
g13
sg19
g1039
sg21
g22
sbag7
(g8
g9
NtRp1415
(dp1416
g12
g13
sg14
S'Courier 10 Pitch'
p1417
sg16
I700
sg17
g13
sg18
g13
sg19
g1040
sg21
g22
sbag7
(g8
g9
NtRp1418
(dp1419
g12
g29
sg14
S'LMSansQuot8'
p1420
sg16
I700
sg17
g13
sg18
g13
sg19
g1041
sg21
g22
sbag7
(g8
g9
NtRp1421
(dp1422
g12
g13
sg14
S'URW Palladio L'
p1423
sg16
I500
sg17
g13
sg18
g13
sg19
g1042
sg21
g22
sbag7
(g8
g9
NtRp1424
(dp1425
g12
g13
sg14
S'LMRoman10'
p1426
sg16
I400
sg17
g13
sg18
g13
sg19
g1043
sg21
g22
sbag7
(g8
g9
NtRp1427
(dp1428
g12
g13
sg14
S'URW Gothic L'
p1429
sg16
I600
sg17
g13
sg18
g13
sg19
g1044
sg21
g22
sbag7
(g8
g9
NtRp1430
(dp1431
g12
g13
sg14
S'LMSansQuot8'
p1432
sg16
I700
sg17
g13
sg18
g13
sg19
g1045
sg21
g22
sbag7
(g8
g9
NtRp1433
(dp1434
g12
g29
sg14
S'LMRomanSlant10'
p1435
sg16
I400
sg17
g13
sg18
g13
sg19
g1046
sg21
g22
sbag7
(g8
g9
NtRp1436
(dp1437
g12
g29
sg14
S'LMMonoProp10'
p1438
sg16
I400
sg17
g13
sg18
g13
sg19
g1047
sg21
g22
sbag7
(g8
g9
NtRp1439
(dp1440
g12
g13
sg14
S'LMSansDemiCond10'
p1441
sg16
I600
sg17
g200
sg18
g13
sg19
g1048
sg21
g22
sbag7
(g8
g9
NtRp1442
(dp1443
g12
g29
sg14
S'URW Bookman L'
p1444
sg16
I400
sg17
g13
sg18
g13
sg19
g1049
sg21
g22
sbag7
(g8
g9
NtRp1445
(dp1446
g12
g29
sg14
S'LMRomanCaps10'
p1447
sg16
I400
sg17
g13
sg18
g13
sg19
g1050
sg21
g22
sbag7
(g8
g9
NtRp1448
(dp1449
g12
g13
sg14
S'LMMonoPropLt10'
p1450
sg16
I700
sg17
g13
sg18
g13
sg19
g1051
sg21
g22
sbag7
(g8
g9
NtRp1451
(dp1452
g12
g13
sg14
S'Century Schoolbook L'
p1453
sg16
I700
sg17
g13
sg18
g13
sg19
g1052
sg21
g22
sbag7
(g8
g9
NtRp1454
(dp1455
g12
g29
sg14
S'LMRomanSlant10'
p1456
sg16
I700
sg17
g13
sg18
g13
sg19
g1053
sg21
g22
sbag7
(g8
g9
NtRp1457
(dp1458
g12
g29
sg14
S'Nimbus Mono L'
p1459
sg16
I400
sg17
g13
sg18
g13
sg19
g1054
sg21
g22
sbag7
(g8
g9
NtRp1460
(dp1461
g12
g29
sg14
S'LMMonoLtCond10'
p1462
sg16
I200
sg17
g200
sg18
g13
sg19
g1055
sg21
g22
sbag7
(g8
g9
NtRp1463
(dp1464
g12
g13
sg14
S'LMMonoLtCond10'
p1465
sg16
I200
sg17
g200
sg18
g13
sg19
g1056
sg21
g22
sbag7
(g8
g9
NtRp1466
(dp1467
g12
g29
sg14
S'Nimbus Roman No9 L'
p1468
sg16
I400
sg17
g13
sg18
g13
sg19
g1057
sg21
g22
sbag7
(g8
g9
NtRp1469
(dp1470
g12
g29
sg14
S'LMMonoLt10'
p1471
sg16
I200
sg17
g13
sg18
g13
sg19
g1058
sg21
g22
sbag7
(g8
g9
NtRp1472
(dp1473
g12
g13
sg14
S'Bitstream Charter'
p1474
sg16
I700
sg17
g13
sg18
g13
sg19
g1059
sg21
g22
sbag7
(g8
g9
NtRp1475
(dp1476
g12
g29
sg14
S'LMMonoCaps10'
p1477
sg16
I400
sg17
g13
sg18
g13
sg19
g1060
sg21
g22
sbag7
(g8
g9
NtRp1478
(dp1479
g12
g29
sg14
S'URW Gothic L'
p1480
sg16
I600
sg17
g13
sg18
g13
sg19
g1061
sg21
g22
sbag7
(g8
g9
NtRp1481
(dp1482
g12
g29
sg14
S'LMSans10'
p1483
sg16
I400
sg17
g13
sg18
g13
sg19
g1062
sg21
g22
sbag7
(g8
g9
NtRp1484
(dp1485
g12
g13
sg14
S'Century Schoolbook L'
p1486
sg16
I500
sg17
g13
sg18
g13
sg19
g1063
sg21
g22
sbag7
(g8
g9
NtRp1487
(dp1488
g12
g13
sg14
S'Courier 10 Pitch'
p1489
sg16
I400
sg17
g13
sg18
g13
sg19
g1064
sg21
g22
sbag7
(g8
g9
NtRp1490
(dp1491
g12
g29
sg14
S'LMMonoPropLt10'
p1492
sg16
I200
sg17
g13
sg18
g13
sg19
g1065
sg21
g22
sbag7
(g8
g9
NtRp1493
(dp1494
g12
g13
sg14
S'URW Bookman L'
p1495
sg16
I700
sg17
g13
sg18
g13
sg19
g1066
sg21
g22
sbag7
(g8
g9
NtRp1496
(dp1497
g12
g13
sg14
S'LMRomanUnsl10'
p1498
sg16
I400
sg17
g13
sg18
g13
sg19
g1067
sg21
g22
sbasb.